
buffer:     file format elf64-x86-64


Disassembly of section .init:

0000000000401000 <_init>:
  401000:	48 83 ec 08          	sub    $0x8,%rsp
  401004:	48 8b 05 ed 3f 00 00 	mov    0x3fed(%rip),%rax        # 404ff8 <__gmon_start__>
  40100b:	48 85 c0             	test   %rax,%rax
  40100e:	74 02                	je     401012 <_init+0x12>
  401010:	ff d0                	callq  *%rax
  401012:	48 83 c4 08          	add    $0x8,%rsp
  401016:	c3                   	retq   

Disassembly of section .plt:

0000000000401020 <.plt>:
  401020:	ff 35 e2 3f 00 00    	pushq  0x3fe2(%rip)        # 405008 <_GLOBAL_OFFSET_TABLE_+0x8>
  401026:	ff 25 e4 3f 00 00    	jmpq   *0x3fe4(%rip)        # 405010 <_GLOBAL_OFFSET_TABLE_+0x10>
  40102c:	0f 1f 40 00          	nopl   0x0(%rax)

0000000000401030 <strcasecmp@plt>:
  401030:	ff 25 e2 3f 00 00    	jmpq   *0x3fe2(%rip)        # 405018 <strcasecmp@GLIBC_2.2.5>
  401036:	68 00 00 00 00       	pushq  $0x0
  40103b:	e9 e0 ff ff ff       	jmpq   401020 <.plt>

0000000000401040 <__errno_location@plt>:
  401040:	ff 25 da 3f 00 00    	jmpq   *0x3fda(%rip)        # 405020 <__errno_location@GLIBC_2.2.5>
  401046:	68 01 00 00 00       	pushq  $0x1
  40104b:	e9 d0 ff ff ff       	jmpq   401020 <.plt>

0000000000401050 <srandom@plt>:
  401050:	ff 25 d2 3f 00 00    	jmpq   *0x3fd2(%rip)        # 405028 <srandom@GLIBC_2.2.5>
  401056:	68 02 00 00 00       	pushq  $0x2
  40105b:	e9 c0 ff ff ff       	jmpq   401020 <.plt>

0000000000401060 <strcpy@plt>:
  401060:	ff 25 ca 3f 00 00    	jmpq   *0x3fca(%rip)        # 405030 <strcpy@GLIBC_2.2.5>
  401066:	68 03 00 00 00       	pushq  $0x3
  40106b:	e9 b0 ff ff ff       	jmpq   401020 <.plt>

0000000000401070 <__isoc99_fscanf@plt>:
  401070:	ff 25 c2 3f 00 00    	jmpq   *0x3fc2(%rip)        # 405038 <__isoc99_fscanf@GLIBC_2.7>
  401076:	68 04 00 00 00       	pushq  $0x4
  40107b:	e9 a0 ff ff ff       	jmpq   401020 <.plt>

0000000000401080 <isatty@plt>:
  401080:	ff 25 ba 3f 00 00    	jmpq   *0x3fba(%rip)        # 405040 <isatty@GLIBC_2.2.5>
  401086:	68 05 00 00 00       	pushq  $0x5
  40108b:	e9 90 ff ff ff       	jmpq   401020 <.plt>

0000000000401090 <write@plt>:
  401090:	ff 25 b2 3f 00 00    	jmpq   *0x3fb2(%rip)        # 405048 <write@GLIBC_2.2.5>
  401096:	68 06 00 00 00       	pushq  $0x6
  40109b:	e9 80 ff ff ff       	jmpq   401020 <.plt>

00000000004010a0 <getpid@plt>:
  4010a0:	ff 25 aa 3f 00 00    	jmpq   *0x3faa(%rip)        # 405050 <getpid@GLIBC_2.2.5>
  4010a6:	68 07 00 00 00       	pushq  $0x7
  4010ab:	e9 70 ff ff ff       	jmpq   401020 <.plt>

00000000004010b0 <strlen@plt>:
  4010b0:	ff 25 a2 3f 00 00    	jmpq   *0x3fa2(%rip)        # 405058 <strlen@GLIBC_2.2.5>
  4010b6:	68 08 00 00 00       	pushq  $0x8
  4010bb:	e9 60 ff ff ff       	jmpq   401020 <.plt>

00000000004010c0 <mmap@plt>:
  4010c0:	ff 25 9a 3f 00 00    	jmpq   *0x3f9a(%rip)        # 405060 <mmap@GLIBC_2.2.5>
  4010c6:	68 09 00 00 00       	pushq  $0x9
  4010cb:	e9 50 ff ff ff       	jmpq   401020 <.plt>

00000000004010d0 <htons@plt>:
  4010d0:	ff 25 92 3f 00 00    	jmpq   *0x3f92(%rip)        # 405068 <htons@GLIBC_2.2.5>
  4010d6:	68 0a 00 00 00       	pushq  $0xa
  4010db:	e9 40 ff ff ff       	jmpq   401020 <.plt>

00000000004010e0 <printf@plt>:
  4010e0:	ff 25 8a 3f 00 00    	jmpq   *0x3f8a(%rip)        # 405070 <printf@GLIBC_2.2.5>
  4010e6:	68 0b 00 00 00       	pushq  $0xb
  4010eb:	e9 30 ff ff ff       	jmpq   401020 <.plt>

00000000004010f0 <__assert_fail@plt>:
  4010f0:	ff 25 82 3f 00 00    	jmpq   *0x3f82(%rip)        # 405078 <__assert_fail@GLIBC_2.2.5>
  4010f6:	68 0c 00 00 00       	pushq  $0xc
  4010fb:	e9 20 ff ff ff       	jmpq   401020 <.plt>

0000000000401100 <memset@plt>:
  401100:	ff 25 7a 3f 00 00    	jmpq   *0x3f7a(%rip)        # 405080 <memset@GLIBC_2.2.5>
  401106:	68 0d 00 00 00       	pushq  $0xd
  40110b:	e9 10 ff ff ff       	jmpq   401020 <.plt>

0000000000401110 <alarm@plt>:
  401110:	ff 25 72 3f 00 00    	jmpq   *0x3f72(%rip)        # 405088 <alarm@GLIBC_2.2.5>
  401116:	68 0e 00 00 00       	pushq  $0xe
  40111b:	e9 00 ff ff ff       	jmpq   401020 <.plt>

0000000000401120 <close@plt>:
  401120:	ff 25 6a 3f 00 00    	jmpq   *0x3f6a(%rip)        # 405090 <close@GLIBC_2.2.5>
  401126:	68 0f 00 00 00       	pushq  $0xf
  40112b:	e9 f0 fe ff ff       	jmpq   401020 <.plt>

0000000000401130 <read@plt>:
  401130:	ff 25 62 3f 00 00    	jmpq   *0x3f62(%rip)        # 405098 <read@GLIBC_2.2.5>
  401136:	68 10 00 00 00       	pushq  $0x10
  40113b:	e9 e0 fe ff ff       	jmpq   401020 <.plt>

0000000000401140 <srand@plt>:
  401140:	ff 25 5a 3f 00 00    	jmpq   *0x3f5a(%rip)        # 4050a0 <srand@GLIBC_2.2.5>
  401146:	68 11 00 00 00       	pushq  $0x11
  40114b:	e9 d0 fe ff ff       	jmpq   401020 <.plt>

0000000000401150 <calloc@plt>:
  401150:	ff 25 52 3f 00 00    	jmpq   *0x3f52(%rip)        # 4050a8 <calloc@GLIBC_2.2.5>
  401156:	68 12 00 00 00       	pushq  $0x12
  40115b:	e9 c0 fe ff ff       	jmpq   401020 <.plt>

0000000000401160 <strcmp@plt>:
  401160:	ff 25 4a 3f 00 00    	jmpq   *0x3f4a(%rip)        # 4050b0 <strcmp@GLIBC_2.2.5>
  401166:	68 13 00 00 00       	pushq  $0x13
  40116b:	e9 b0 fe ff ff       	jmpq   401020 <.plt>

0000000000401170 <signal@plt>:
  401170:	ff 25 42 3f 00 00    	jmpq   *0x3f42(%rip)        # 4050b8 <signal@GLIBC_2.2.5>
  401176:	68 14 00 00 00       	pushq  $0x14
  40117b:	e9 a0 fe ff ff       	jmpq   401020 <.plt>

0000000000401180 <gethostbyname@plt>:
  401180:	ff 25 3a 3f 00 00    	jmpq   *0x3f3a(%rip)        # 4050c0 <gethostbyname@GLIBC_2.2.5>
  401186:	68 15 00 00 00       	pushq  $0x15
  40118b:	e9 90 fe ff ff       	jmpq   401020 <.plt>

0000000000401190 <fprintf@plt>:
  401190:	ff 25 32 3f 00 00    	jmpq   *0x3f32(%rip)        # 4050c8 <fprintf@GLIBC_2.2.5>
  401196:	68 16 00 00 00       	pushq  $0x16
  40119b:	e9 80 fe ff ff       	jmpq   401020 <.plt>

00000000004011a0 <memcpy@plt>:
  4011a0:	ff 25 2a 3f 00 00    	jmpq   *0x3f2a(%rip)        # 4050d0 <memcpy@GLIBC_2.14>
  4011a6:	68 17 00 00 00       	pushq  $0x17
  4011ab:	e9 70 fe ff ff       	jmpq   401020 <.plt>

00000000004011b0 <time@plt>:
  4011b0:	ff 25 22 3f 00 00    	jmpq   *0x3f22(%rip)        # 4050d8 <time@GLIBC_2.2.5>
  4011b6:	68 18 00 00 00       	pushq  $0x18
  4011bb:	e9 60 fe ff ff       	jmpq   401020 <.plt>

00000000004011c0 <fileno@plt>:
  4011c0:	ff 25 1a 3f 00 00    	jmpq   *0x3f1a(%rip)        # 4050e0 <fileno@GLIBC_2.2.5>
  4011c6:	68 19 00 00 00       	pushq  $0x19
  4011cb:	e9 50 fe ff ff       	jmpq   401020 <.plt>

00000000004011d0 <random@plt>:
  4011d0:	ff 25 12 3f 00 00    	jmpq   *0x3f12(%rip)        # 4050e8 <random@GLIBC_2.2.5>
  4011d6:	68 1a 00 00 00       	pushq  $0x1a
  4011db:	e9 40 fe ff ff       	jmpq   401020 <.plt>

00000000004011e0 <__isoc99_sscanf@plt>:
  4011e0:	ff 25 0a 3f 00 00    	jmpq   *0x3f0a(%rip)        # 4050f0 <__isoc99_sscanf@GLIBC_2.7>
  4011e6:	68 1b 00 00 00       	pushq  $0x1b
  4011eb:	e9 30 fe ff ff       	jmpq   401020 <.plt>

00000000004011f0 <munmap@plt>:
  4011f0:	ff 25 02 3f 00 00    	jmpq   *0x3f02(%rip)        # 4050f8 <munmap@GLIBC_2.2.5>
  4011f6:	68 1c 00 00 00       	pushq  $0x1c
  4011fb:	e9 20 fe ff ff       	jmpq   401020 <.plt>

0000000000401200 <bcopy@plt>:
  401200:	ff 25 fa 3e 00 00    	jmpq   *0x3efa(%rip)        # 405100 <bcopy@GLIBC_2.2.5>
  401206:	68 1d 00 00 00       	pushq  $0x1d
  40120b:	e9 10 fe ff ff       	jmpq   401020 <.plt>

0000000000401210 <fopen@plt>:
  401210:	ff 25 f2 3e 00 00    	jmpq   *0x3ef2(%rip)        # 405108 <fopen@GLIBC_2.2.5>
  401216:	68 1e 00 00 00       	pushq  $0x1e
  40121b:	e9 00 fe ff ff       	jmpq   401020 <.plt>

0000000000401220 <getopt@plt>:
  401220:	ff 25 ea 3e 00 00    	jmpq   *0x3eea(%rip)        # 405110 <getopt@GLIBC_2.2.5>
  401226:	68 1f 00 00 00       	pushq  $0x1f
  40122b:	e9 f0 fd ff ff       	jmpq   401020 <.plt>

0000000000401230 <gethostname@plt>:
  401230:	ff 25 e2 3e 00 00    	jmpq   *0x3ee2(%rip)        # 405118 <gethostname@GLIBC_2.2.5>
  401236:	68 20 00 00 00       	pushq  $0x20
  40123b:	e9 e0 fd ff ff       	jmpq   401020 <.plt>

0000000000401240 <sprintf@plt>:
  401240:	ff 25 da 3e 00 00    	jmpq   *0x3eda(%rip)        # 405120 <sprintf@GLIBC_2.2.5>
  401246:	68 21 00 00 00       	pushq  $0x21
  40124b:	e9 d0 fd ff ff       	jmpq   401020 <.plt>

0000000000401250 <exit@plt>:
  401250:	ff 25 d2 3e 00 00    	jmpq   *0x3ed2(%rip)        # 405128 <exit@GLIBC_2.2.5>
  401256:	68 22 00 00 00       	pushq  $0x22
  40125b:	e9 c0 fd ff ff       	jmpq   401020 <.plt>

0000000000401260 <connect@plt>:
  401260:	ff 25 ca 3e 00 00    	jmpq   *0x3eca(%rip)        # 405130 <connect@GLIBC_2.2.5>
  401266:	68 23 00 00 00       	pushq  $0x23
  40126b:	e9 b0 fd ff ff       	jmpq   401020 <.plt>

0000000000401270 <getc@plt>:
  401270:	ff 25 c2 3e 00 00    	jmpq   *0x3ec2(%rip)        # 405138 <getc@GLIBC_2.2.5>
  401276:	68 24 00 00 00       	pushq  $0x24
  40127b:	e9 a0 fd ff ff       	jmpq   401020 <.plt>

0000000000401280 <rand@plt>:
  401280:	ff 25 ba 3e 00 00    	jmpq   *0x3eba(%rip)        # 405140 <rand@GLIBC_2.2.5>
  401286:	68 25 00 00 00       	pushq  $0x25
  40128b:	e9 90 fd ff ff       	jmpq   401020 <.plt>

0000000000401290 <socket@plt>:
  401290:	ff 25 b2 3e 00 00    	jmpq   *0x3eb2(%rip)        # 405148 <socket@GLIBC_2.2.5>
  401296:	68 26 00 00 00       	pushq  $0x26
  40129b:	e9 80 fd ff ff       	jmpq   401020 <.plt>

Disassembly of section .text:

00000000004012a0 <_start>:
  4012a0:	31 ed                	xor    %ebp,%ebp
  4012a2:	49 89 d1             	mov    %rdx,%r9
  4012a5:	5e                   	pop    %rsi
  4012a6:	48 89 e2             	mov    %rsp,%rdx
  4012a9:	48 83 e4 f0          	and    $0xfffffffffffffff0,%rsp
  4012ad:	50                   	push   %rax
  4012ae:	54                   	push   %rsp
  4012af:	49 c7 c0 e0 2e 40 00 	mov    $0x402ee0,%r8
  4012b6:	48 c7 c1 80 2e 40 00 	mov    $0x402e80,%rcx
  4012bd:	48 c7 c7 d0 1a 40 00 	mov    $0x401ad0,%rdi
  4012c4:	ff 15 26 3d 00 00    	callq  *0x3d26(%rip)        # 404ff0 <__libc_start_main@GLIBC_2.2.5>
  4012ca:	f4                   	hlt    
  4012cb:	0f 1f 44 00 00       	nopl   0x0(%rax,%rax,1)

00000000004012d0 <_dl_relocate_static_pie>:
  4012d0:	c3                   	retq   
  4012d1:	66 2e 0f 1f 84 00 00 	nopw   %cs:0x0(%rax,%rax,1)
  4012d8:	00 00 00 
  4012db:	0f 1f 44 00 00       	nopl   0x0(%rax,%rax,1)

00000000004012e0 <deregister_tm_clones>:
  4012e0:	b8 88 71 40 00       	mov    $0x407188,%eax
  4012e5:	48 3d 88 71 40 00    	cmp    $0x407188,%rax
  4012eb:	74 13                	je     401300 <deregister_tm_clones+0x20>
  4012ed:	b8 00 00 00 00       	mov    $0x0,%eax
  4012f2:	48 85 c0             	test   %rax,%rax
  4012f5:	74 09                	je     401300 <deregister_tm_clones+0x20>
  4012f7:	bf 88 71 40 00       	mov    $0x407188,%edi
  4012fc:	ff e0                	jmpq   *%rax
  4012fe:	66 90                	xchg   %ax,%ax
  401300:	c3                   	retq   
  401301:	66 66 2e 0f 1f 84 00 	data16 nopw %cs:0x0(%rax,%rax,1)
  401308:	00 00 00 00 
  40130c:	0f 1f 40 00          	nopl   0x0(%rax)

0000000000401310 <register_tm_clones>:
  401310:	be 88 71 40 00       	mov    $0x407188,%esi
  401315:	48 81 ee 88 71 40 00 	sub    $0x407188,%rsi
  40131c:	48 c1 fe 03          	sar    $0x3,%rsi
  401320:	48 89 f0             	mov    %rsi,%rax
  401323:	48 c1 e8 3f          	shr    $0x3f,%rax
  401327:	48 01 c6             	add    %rax,%rsi
  40132a:	48 d1 fe             	sar    %rsi
  40132d:	74 11                	je     401340 <register_tm_clones+0x30>
  40132f:	b8 00 00 00 00       	mov    $0x0,%eax
  401334:	48 85 c0             	test   %rax,%rax
  401337:	74 07                	je     401340 <register_tm_clones+0x30>
  401339:	bf 88 71 40 00       	mov    $0x407188,%edi
  40133e:	ff e0                	jmpq   *%rax
  401340:	c3                   	retq   
  401341:	66 66 2e 0f 1f 84 00 	data16 nopw %cs:0x0(%rax,%rax,1)
  401348:	00 00 00 00 
  40134c:	0f 1f 40 00          	nopl   0x0(%rax)

0000000000401350 <__do_global_dtors_aux>:
  401350:	80 3d 71 5e 00 00 00 	cmpb   $0x0,0x5e71(%rip)        # 4071c8 <completed.7325>
  401357:	75 17                	jne    401370 <__do_global_dtors_aux+0x20>
  401359:	55                   	push   %rbp
  40135a:	48 89 e5             	mov    %rsp,%rbp
  40135d:	e8 7e ff ff ff       	callq  4012e0 <deregister_tm_clones>
  401362:	c6 05 5f 5e 00 00 01 	movb   $0x1,0x5e5f(%rip)        # 4071c8 <completed.7325>
  401369:	5d                   	pop    %rbp
  40136a:	c3                   	retq   
  40136b:	0f 1f 44 00 00       	nopl   0x0(%rax,%rax,1)
  401370:	c3                   	retq   
  401371:	66 66 2e 0f 1f 84 00 	data16 nopw %cs:0x0(%rax,%rax,1)
  401378:	00 00 00 00 
  40137c:	0f 1f 40 00          	nopl   0x0(%rax)

0000000000401380 <frame_dummy>:
  401380:	eb 8e                	jmp    401310 <register_tm_clones>
  401382:	66 2e 0f 1f 84 00 00 	nopw   %cs:0x0(%rax,%rax,1)
  401389:	00 00 00 
  40138c:	0f 1f 40 00          	nopl   0x0(%rax)

0000000000401390 <lights_off>:
  401390:	55                   	push   %rbp
  401391:	48 89 e5             	mov    %rsp,%rbp
  401394:	48 83 ec 10          	sub    $0x10,%rsp
  401398:	48 bf 04 30 40 00 00 	movabs $0x403004,%rdi
  40139f:	00 00 00 
  4013a2:	b0 00                	mov    $0x0,%al
  4013a4:	e8 37 fd ff ff       	callq  4010e0 <printf@plt>
  4013a9:	bf 01 00 00 00       	mov    $0x1,%edi
  4013ae:	89 45 fc             	mov    %eax,-0x4(%rbp)
  4013b1:	e8 da 0b 00 00       	callq  401f90 <validate>
  4013b6:	31 ff                	xor    %edi,%edi
  4013b8:	e8 93 fe ff ff       	callq  401250 <exit@plt>
  4013bd:	0f 1f 00             	nopl   (%rax)

00000000004013c0 <sandwich_order>:
  4013c0:	55                   	push   %rbp
  4013c1:	48 89 e5             	mov    %rsp,%rbp
  4013c4:	48 83 ec 20          	sub    $0x20,%rsp
  4013c8:	48 8d 45 10          	lea    0x10(%rbp),%rax
  4013cc:	48 89 c1             	mov    %rax,%rcx
  4013cf:	48 83 c1 04          	add    $0x4,%rcx
  4013d3:	48 89 cf             	mov    %rcx,%rdi
  4013d6:	48 89 45 f0          	mov    %rax,-0x10(%rbp)
  4013da:	e8 71 00 00 00       	callq  401450 <find_total>
  4013df:	89 45 fc             	mov    %eax,-0x4(%rbp)
  4013e2:	48 8b 4d f0          	mov    -0x10(%rbp),%rcx
  4013e6:	8b 01                	mov    (%rcx),%eax
  4013e8:	3b 04 25 e0 71 40 00 	cmp    0x4071e0,%eax
  4013ef:	0f 85 36 00 00 00    	jne    40142b <sandwich_order+0x6b>
  4013f5:	83 7d fc 14          	cmpl   $0x14,-0x4(%rbp)
  4013f9:	0f 8c 2c 00 00 00    	jl     40142b <sandwich_order+0x6b>
  4013ff:	48 8b 45 f0          	mov    -0x10(%rbp),%rax
  401403:	8b 30                	mov    (%rax),%esi
  401405:	8b 55 fc             	mov    -0x4(%rbp),%edx
  401408:	48 bf 22 30 40 00 00 	movabs $0x403022,%rdi
  40140f:	00 00 00 
  401412:	b0 00                	mov    $0x0,%al
  401414:	e8 c7 fc ff ff       	callq  4010e0 <printf@plt>
  401419:	bf 02 00 00 00       	mov    $0x2,%edi
  40141e:	89 45 ec             	mov    %eax,-0x14(%rbp)
  401421:	e8 6a 0b 00 00       	callq  401f90 <validate>
  401426:	e9 1d 00 00 00       	jmpq   401448 <sandwich_order+0x88>
  40142b:	48 8b 45 f0          	mov    -0x10(%rbp),%rax
  40142f:	8b 30                	mov    (%rax),%esi
  401431:	8b 55 fc             	mov    -0x4(%rbp),%edx
  401434:	48 bf 50 30 40 00 00 	movabs $0x403050,%rdi
  40143b:	00 00 00 
  40143e:	b0 00                	mov    $0x0,%al
  401440:	e8 9b fc ff ff       	callq  4010e0 <printf@plt>
  401445:	89 45 e8             	mov    %eax,-0x18(%rbp)
  401448:	31 ff                	xor    %edi,%edi
  40144a:	e8 01 fe ff ff       	callq  401250 <exit@plt>
  40144f:	90                   	nop

0000000000401450 <find_total>:
  401450:	55                   	push   %rbp
  401451:	48 89 e5             	mov    %rsp,%rbp
  401454:	48 89 7d f8          	mov    %rdi,-0x8(%rbp)
  401458:	c7 45 f0 00 00 00 00 	movl   $0x0,-0x10(%rbp)
  40145f:	c7 45 f4 00 00 00 00 	movl   $0x0,-0xc(%rbp)
  401466:	83 7d f4 04          	cmpl   $0x4,-0xc(%rbp)
  40146a:	0f 8d 1f 00 00 00    	jge    40148f <find_total+0x3f>
  401470:	48 8b 45 f8          	mov    -0x8(%rbp),%rax
  401474:	48 63 4d f4          	movslq -0xc(%rbp),%rcx
  401478:	8b 14 88             	mov    (%rax,%rcx,4),%edx
  40147b:	03 55 f0             	add    -0x10(%rbp),%edx
  40147e:	89 55 f0             	mov    %edx,-0x10(%rbp)
  401481:	8b 45 f4             	mov    -0xc(%rbp),%eax
  401484:	83 c0 01             	add    $0x1,%eax
  401487:	89 45 f4             	mov    %eax,-0xc(%rbp)
  40148a:	e9 d7 ff ff ff       	jmpq   401466 <find_total+0x16>
  40148f:	8b 45 f0             	mov    -0x10(%rbp),%eax
  401492:	5d                   	pop    %rbp
  401493:	c3                   	retq   
  401494:	66 2e 0f 1f 84 00 00 	nopw   %cs:0x0(%rax,%rax,1)
  40149b:	00 00 00 
  40149e:	66 90                	xchg   %ax,%ax

00000000004014a0 <test_exploit>:
  4014a0:	55                   	push   %rbp
  4014a1:	48 89 e5             	mov    %rsp,%rbp
  4014a4:	48 83 ec 20          	sub    $0x20,%rsp
  4014a8:	e8 03 06 00 00       	callq  401ab0 <uniqueval>
  4014ad:	89 45 f8             	mov    %eax,-0x8(%rbp)
  4014b0:	e8 8b 00 00 00       	callq  401540 <getbuf>
  4014b5:	89 45 fc             	mov    %eax,-0x4(%rbp)
  4014b8:	8b 45 f8             	mov    -0x8(%rbp),%eax
  4014bb:	89 45 f4             	mov    %eax,-0xc(%rbp)
  4014be:	e8 ed 05 00 00       	callq  401ab0 <uniqueval>
  4014c3:	8b 4d f4             	mov    -0xc(%rbp),%ecx
  4014c6:	39 c1                	cmp    %eax,%ecx
  4014c8:	0f 84 14 00 00 00    	je     4014e2 <test_exploit+0x42>
  4014ce:	48 bf 92 30 40 00 00 	movabs $0x403092,%rdi
  4014d5:	00 00 00 
  4014d8:	b0 00                	mov    $0x0,%al
  4014da:	e8 01 fc ff ff       	callq  4010e0 <printf@plt>
  4014df:	89 45 f0             	mov    %eax,-0x10(%rbp)
  4014e2:	8b 45 fc             	mov    -0x4(%rbp),%eax
  4014e5:	3b 04 25 e0 71 40 00 	cmp    0x4071e0,%eax
  4014ec:	0f 85 26 00 00 00    	jne    401518 <test_exploit+0x78>
  4014f2:	8b 75 fc             	mov    -0x4(%rbp),%esi
  4014f5:	48 bf bc 30 40 00 00 	movabs $0x4030bc,%rdi
  4014fc:	00 00 00 
  4014ff:	b0 00                	mov    $0x0,%al
  401501:	e8 da fb ff ff       	callq  4010e0 <printf@plt>
  401506:	bf 03 00 00 00       	mov    $0x3,%edi
  40150b:	89 45 ec             	mov    %eax,-0x14(%rbp)
  40150e:	e8 7d 0a 00 00       	callq  401f90 <validate>
  401513:	e9 17 00 00 00       	jmpq   40152f <test_exploit+0x8f>
  401518:	8b 75 fc             	mov    -0x4(%rbp),%esi
  40151b:	48 bf de 30 40 00 00 	movabs $0x4030de,%rdi
  401522:	00 00 00 
  401525:	b0 00                	mov    $0x0,%al
  401527:	e8 b4 fb ff ff       	callq  4010e0 <printf@plt>
  40152c:	89 45 e8             	mov    %eax,-0x18(%rbp)
  40152f:	48 83 c4 20          	add    $0x20,%rsp
  401533:	5d                   	pop    %rbp
  401534:	c3                   	retq   
  401535:	66 2e 0f 1f 84 00 00 	nopw   %cs:0x0(%rax,%rax,1)
  40153c:	00 00 00 
  40153f:	90                   	nop

0000000000401540 <getbuf>:
  401540:	55                   	push   %rbp
  401541:	48 89 e5             	mov    %rsp,%rbp
  401544:	48 83 ec 40          	sub    $0x40,%rsp
  401548:	48 8d 7d d0          	lea    -0x30(%rbp),%rdi
  40154c:	c6 45 ff 01          	movb   $0x1,-0x1(%rbp)
  401550:	e8 1b 00 00 00       	callq  401570 <Gets>
  401555:	8a 4d ff             	mov    -0x1(%rbp),%cl
  401558:	0f be d1             	movsbl %cl,%edx
  40155b:	48 89 45 c8          	mov    %rax,-0x38(%rbp)
  40155f:	89 d0                	mov    %edx,%eax
  401561:	48 83 c4 40          	add    $0x40,%rsp
  401565:	5d                   	pop    %rbp
  401566:	c3                   	retq   
  401567:	66 0f 1f 84 00 00 00 	nopw   0x0(%rax,%rax,1)
  40156e:	00 00 

0000000000401570 <Gets>:
  401570:	55                   	push   %rbp
  401571:	48 89 e5             	mov    %rsp,%rbp
  401574:	48 83 ec 20          	sub    $0x20,%rsp
  401578:	48 89 7d f8          	mov    %rdi,-0x8(%rbp)
  40157c:	48 8b 7d f8          	mov    -0x8(%rbp),%rdi
  401580:	48 89 7d e8          	mov    %rdi,-0x18(%rbp)
  401584:	c7 04 25 e8 71 40 00 	movl   $0x0,0x4071e8
  40158b:	00 00 00 00 
  40158f:	48 8b 3c 25 d8 71 40 	mov    0x4071d8,%rdi
  401596:	00 
  401597:	e8 d4 fc ff ff       	callq  401270 <getc@plt>
  40159c:	31 c9                	xor    %ecx,%ecx
  40159e:	88 ca                	mov    %cl,%dl
  4015a0:	89 45 f4             	mov    %eax,-0xc(%rbp)
  4015a3:	83 f8 ff             	cmp    $0xffffffff,%eax
  4015a6:	88 55 e7             	mov    %dl,-0x19(%rbp)
  4015a9:	0f 84 0a 00 00 00    	je     4015b9 <Gets+0x49>
  4015af:	83 7d f4 0a          	cmpl   $0xa,-0xc(%rbp)
  4015b3:	0f 95 c0             	setne  %al
  4015b6:	88 45 e7             	mov    %al,-0x19(%rbp)
  4015b9:	8a 45 e7             	mov    -0x19(%rbp),%al
  4015bc:	a8 01                	test   $0x1,%al
  4015be:	0f 85 05 00 00 00    	jne    4015c9 <Gets+0x59>
  4015c4:	e9 28 00 00 00       	jmpq   4015f1 <Gets+0x81>
  4015c9:	8b 45 f4             	mov    -0xc(%rbp),%eax
  4015cc:	88 c1                	mov    %al,%cl
  4015ce:	48 8b 55 e8          	mov    -0x18(%rbp),%rdx
  4015d2:	48 89 d6             	mov    %rdx,%rsi
  4015d5:	48 83 c6 01          	add    $0x1,%rsi
  4015d9:	48 89 75 e8          	mov    %rsi,-0x18(%rbp)
  4015dd:	88 0a                	mov    %cl,(%rdx)
  4015df:	8b 45 f4             	mov    -0xc(%rbp),%eax
  4015e2:	88 c1                	mov    %al,%cl
  4015e4:	0f be f9             	movsbl %cl,%edi
  4015e7:	e8 14 01 00 00       	callq  401700 <save_char>
  4015ec:	e9 9e ff ff ff       	jmpq   40158f <Gets+0x1f>
  4015f1:	48 8b 45 e8          	mov    -0x18(%rbp),%rax
  4015f5:	48 89 c1             	mov    %rax,%rcx
  4015f8:	48 83 c1 01          	add    $0x1,%rcx
  4015fc:	48 89 4d e8          	mov    %rcx,-0x18(%rbp)
  401600:	c6 00 00             	movb   $0x0,(%rax)
  401603:	e8 c8 07 00 00       	callq  401dd0 <save_term>
  401608:	48 8b 45 f8          	mov    -0x8(%rbp),%rax
  40160c:	48 83 c4 20          	add    $0x20,%rsp
  401610:	5d                   	pop    %rbp
  401611:	c3                   	retq   
  401612:	66 2e 0f 1f 84 00 00 	nopw   %cs:0x0(%rax,%rax,1)
  401619:	00 00 00 
  40161c:	0f 1f 40 00          	nopl   0x0(%rax)

0000000000401620 <getbufn>:
  401620:	55                   	push   %rbp
  401621:	48 89 e5             	mov    %rsp,%rbp
  401624:	48 81 ec 20 02 00 00 	sub    $0x220,%rsp
  40162b:	48 8d bd f0 fd ff ff 	lea    -0x210(%rbp),%rdi
  401632:	c7 45 fc 01 00 00 00 	movl   $0x1,-0x4(%rbp)
  401639:	e8 32 ff ff ff       	callq  401570 <Gets>
  40163e:	8b 4d fc             	mov    -0x4(%rbp),%ecx
  401641:	48 89 85 e8 fd ff ff 	mov    %rax,-0x218(%rbp)
  401648:	89 c8                	mov    %ecx,%eax
  40164a:	48 81 c4 20 02 00 00 	add    $0x220,%rsp
  401651:	5d                   	pop    %rbp
  401652:	c3                   	retq   
  401653:	66 2e 0f 1f 84 00 00 	nopw   %cs:0x0(%rax,%rax,1)
  40165a:	00 00 00 
  40165d:	0f 1f 00             	nopl   (%rax)

0000000000401660 <test_exploitn>:
  401660:	55                   	push   %rbp
  401661:	48 89 e5             	mov    %rsp,%rbp
  401664:	48 83 ec 20          	sub    $0x20,%rsp
  401668:	e8 43 04 00 00       	callq  401ab0 <uniqueval>
  40166d:	89 45 f8             	mov    %eax,-0x8(%rbp)
  401670:	e8 ab ff ff ff       	callq  401620 <getbufn>
  401675:	89 45 fc             	mov    %eax,-0x4(%rbp)
  401678:	8b 45 f8             	mov    -0x8(%rbp),%eax
  40167b:	89 45 f4             	mov    %eax,-0xc(%rbp)
  40167e:	e8 2d 04 00 00       	callq  401ab0 <uniqueval>
  401683:	8b 4d f4             	mov    -0xc(%rbp),%ecx
  401686:	39 c1                	cmp    %eax,%ecx
  401688:	0f 84 14 00 00 00    	je     4016a2 <test_exploitn+0x42>
  40168e:	48 bf 92 30 40 00 00 	movabs $0x403092,%rdi
  401695:	00 00 00 
  401698:	b0 00                	mov    $0x0,%al
  40169a:	e8 41 fa ff ff       	callq  4010e0 <printf@plt>
  40169f:	89 45 f0             	mov    %eax,-0x10(%rbp)
  4016a2:	8b 45 fc             	mov    -0x4(%rbp),%eax
  4016a5:	3b 04 25 e0 71 40 00 	cmp    0x4071e0,%eax
  4016ac:	0f 85 26 00 00 00    	jne    4016d8 <test_exploitn+0x78>
  4016b2:	8b 75 fc             	mov    -0x4(%rbp),%esi
  4016b5:	48 bf fa 30 40 00 00 	movabs $0x4030fa,%rdi
  4016bc:	00 00 00 
  4016bf:	b0 00                	mov    $0x0,%al
  4016c1:	e8 1a fa ff ff       	callq  4010e0 <printf@plt>
  4016c6:	bf 04 00 00 00       	mov    $0x4,%edi
  4016cb:	89 45 ec             	mov    %eax,-0x14(%rbp)
  4016ce:	e8 bd 08 00 00       	callq  401f90 <validate>
  4016d3:	e9 17 00 00 00       	jmpq   4016ef <test_exploitn+0x8f>
  4016d8:	8b 75 fc             	mov    -0x4(%rbp),%esi
  4016db:	48 bf 16 31 40 00 00 	movabs $0x403116,%rdi
  4016e2:	00 00 00 
  4016e5:	b0 00                	mov    $0x0,%al
  4016e7:	e8 f4 f9 ff ff       	callq  4010e0 <printf@plt>
  4016ec:	89 45 e8             	mov    %eax,-0x18(%rbp)
  4016ef:	48 83 c4 20          	add    $0x20,%rsp
  4016f3:	5d                   	pop    %rbp
  4016f4:	c3                   	retq   
  4016f5:	66 2e 0f 1f 84 00 00 	nopw   %cs:0x0(%rax,%rax,1)
  4016fc:	00 00 00 
  4016ff:	90                   	nop

0000000000401700 <save_char>:
  401700:	55                   	push   %rbp
  401701:	48 89 e5             	mov    %rsp,%rbp
  401704:	40 88 f8             	mov    %dil,%al
  401707:	88 45 ff             	mov    %al,-0x1(%rbp)
  40170a:	81 3c 25 e8 71 40 00 	cmpl   $0x400,0x4071e8
  401711:	00 04 00 00 
  401715:	0f 8d 73 00 00 00    	jge    40178e <save_char+0x8e>
  40171b:	0f be 45 ff          	movsbl -0x1(%rbp),%eax
  40171f:	c1 f8 04             	sar    $0x4,%eax
  401722:	83 e0 0f             	and    $0xf,%eax
  401725:	48 63 c8             	movslq %eax,%rcx
  401728:	8a 14 0d 60 51 40 00 	mov    0x405160(,%rcx,1),%dl
  40172f:	6b 04 25 e8 71 40 00 	imul   $0x3,0x4071e8,%eax
  401736:	03 
  401737:	48 63 c8             	movslq %eax,%rcx
  40173a:	88 14 0d 10 72 40 00 	mov    %dl,0x407210(,%rcx,1)
  401741:	0f be 45 ff          	movsbl -0x1(%rbp),%eax
  401745:	83 e0 0f             	and    $0xf,%eax
  401748:	48 63 c8             	movslq %eax,%rcx
  40174b:	8a 14 0d 60 51 40 00 	mov    0x405160(,%rcx,1),%dl
  401752:	6b 04 25 e8 71 40 00 	imul   $0x3,0x4071e8,%eax
  401759:	03 
  40175a:	83 c0 01             	add    $0x1,%eax
  40175d:	48 63 c8             	movslq %eax,%rcx
  401760:	88 14 0d 10 72 40 00 	mov    %dl,0x407210(,%rcx,1)
  401767:	6b 04 25 e8 71 40 00 	imul   $0x3,0x4071e8,%eax
  40176e:	03 
  40176f:	83 c0 02             	add    $0x2,%eax
  401772:	48 63 c8             	movslq %eax,%rcx
  401775:	c6 04 0d 10 72 40 00 	movb   $0x20,0x407210(,%rcx,1)
  40177c:	20 
  40177d:	8b 04 25 e8 71 40 00 	mov    0x4071e8,%eax
  401784:	83 c0 01             	add    $0x1,%eax
  401787:	89 04 25 e8 71 40 00 	mov    %eax,0x4071e8
  40178e:	5d                   	pop    %rbp
  40178f:	c3                   	retq   

0000000000401790 <bushandler>:
  401790:	55                   	push   %rbp
  401791:	48 89 e5             	mov    %rsp,%rbp
  401794:	48 83 ec 10          	sub    $0x10,%rsp
  401798:	89 7d fc             	mov    %edi,-0x4(%rbp)
  40179b:	48 bf 33 31 40 00 00 	movabs $0x403133,%rdi
  4017a2:	00 00 00 
  4017a5:	b0 00                	mov    $0x0,%al
  4017a7:	e8 34 f9 ff ff       	callq  4010e0 <printf@plt>
  4017ac:	48 bf 54 31 40 00 00 	movabs $0x403154,%rdi
  4017b3:	00 00 00 
  4017b6:	89 45 f8             	mov    %eax,-0x8(%rbp)
  4017b9:	b0 00                	mov    $0x0,%al
  4017bb:	e8 20 f9 ff ff       	callq  4010e0 <printf@plt>
  4017c0:	bf 01 00 00 00       	mov    $0x1,%edi
  4017c5:	89 45 f4             	mov    %eax,-0xc(%rbp)
  4017c8:	e8 83 fa ff ff       	callq  401250 <exit@plt>
  4017cd:	0f 1f 00             	nopl   (%rax)

00000000004017d0 <seghandler>:
  4017d0:	55                   	push   %rbp
  4017d1:	48 89 e5             	mov    %rsp,%rbp
  4017d4:	48 83 ec 10          	sub    $0x10,%rsp
  4017d8:	89 7d fc             	mov    %edi,-0x4(%rbp)
  4017db:	48 bf 6b 31 40 00 00 	movabs $0x40316b,%rdi
  4017e2:	00 00 00 
  4017e5:	b0 00                	mov    $0x0,%al
  4017e7:	e8 f4 f8 ff ff       	callq  4010e0 <printf@plt>
  4017ec:	48 bf 54 31 40 00 00 	movabs $0x403154,%rdi
  4017f3:	00 00 00 
  4017f6:	89 45 f8             	mov    %eax,-0x8(%rbp)
  4017f9:	b0 00                	mov    $0x0,%al
  4017fb:	e8 e0 f8 ff ff       	callq  4010e0 <printf@plt>
  401800:	bf 01 00 00 00       	mov    $0x1,%edi
  401805:	89 45 f4             	mov    %eax,-0xc(%rbp)
  401808:	e8 43 fa ff ff       	callq  401250 <exit@plt>
  40180d:	0f 1f 00             	nopl   (%rax)

0000000000401810 <illegalhandler>:
  401810:	55                   	push   %rbp
  401811:	48 89 e5             	mov    %rsp,%rbp
  401814:	48 83 ec 10          	sub    $0x10,%rsp
  401818:	89 7d fc             	mov    %edi,-0x4(%rbp)
  40181b:	48 bf 94 31 40 00 00 	movabs $0x403194,%rdi
  401822:	00 00 00 
  401825:	b0 00                	mov    $0x0,%al
  401827:	e8 b4 f8 ff ff       	callq  4010e0 <printf@plt>
  40182c:	48 bf 54 31 40 00 00 	movabs $0x403154,%rdi
  401833:	00 00 00 
  401836:	89 45 f8             	mov    %eax,-0x8(%rbp)
  401839:	b0 00                	mov    $0x0,%al
  40183b:	e8 a0 f8 ff ff       	callq  4010e0 <printf@plt>
  401840:	bf 01 00 00 00       	mov    $0x1,%edi
  401845:	89 45 f4             	mov    %eax,-0xc(%rbp)
  401848:	e8 03 fa ff ff       	callq  401250 <exit@plt>
  40184d:	0f 1f 00             	nopl   (%rax)

0000000000401850 <launcher>:
  401850:	55                   	push   %rbp
  401851:	48 89 e5             	mov    %rsp,%rbp
  401854:	48 83 ec 30          	sub    $0x30,%rsp
  401858:	b8 00 60 58 55       	mov    $0x55586000,%eax
  40185d:	89 c1                	mov    %eax,%ecx
  40185f:	b8 00 00 20 00       	mov    $0x200000,%eax
  401864:	89 c2                	mov    %eax,%edx
  401866:	45 31 c0             	xor    %r8d,%r8d
  401869:	31 c0                	xor    %eax,%eax
  40186b:	41 89 c1             	mov    %eax,%r9d
  40186e:	89 7d fc             	mov    %edi,-0x4(%rbp)
  401871:	89 75 f8             	mov    %esi,-0x8(%rbp)
  401874:	8b 45 fc             	mov    -0x4(%rbp),%eax
  401877:	89 04 25 ec 71 40 00 	mov    %eax,0x4071ec
  40187e:	8b 45 f8             	mov    -0x8(%rbp),%eax
  401881:	89 04 25 f0 71 40 00 	mov    %eax,0x4071f0
  401888:	48 89 cf             	mov    %rcx,%rdi
  40188b:	48 89 d6             	mov    %rdx,%rsi
  40188e:	ba 07 00 00 00       	mov    $0x7,%edx
  401893:	b9 32 01 00 00       	mov    $0x132,%ecx
  401898:	e8 23 f8 ff ff       	callq  4010c0 <mmap@plt>
  40189d:	b9 00 60 58 55       	mov    $0x55586000,%ecx
  4018a2:	89 ce                	mov    %ecx,%esi
  4018a4:	48 89 45 f0          	mov    %rax,-0x10(%rbp)
  4018a8:	48 39 75 f0          	cmp    %rsi,-0x10(%rbp)
  4018ac:	0f 84 26 00 00 00    	je     4018d8 <launcher+0x88>
  4018b2:	48 8b 3c 25 c0 71 40 	mov    0x4071c0,%rdi
  4018b9:	00 
  4018ba:	48 be c0 31 40 00 00 	movabs $0x4031c0,%rsi
  4018c1:	00 00 00 
  4018c4:	b0 00                	mov    $0x0,%al
  4018c6:	e8 c5 f8 ff ff       	callq  401190 <fprintf@plt>
  4018cb:	bf 01 00 00 00       	mov    $0x1,%edi
  4018d0:	89 45 ec             	mov    %eax,-0x14(%rbp)
  4018d3:	e8 78 f9 ff ff       	callq  401250 <exit@plt>
  4018d8:	b8 10 00 00 00       	mov    $0x10,%eax
  4018dd:	89 c1                	mov    %eax,%ecx
  4018df:	31 c0                	xor    %eax,%eax
  4018e1:	89 c2                	mov    %eax,%edx
  4018e3:	48 8b 75 f0          	mov    -0x10(%rbp),%rsi
  4018e7:	48 81 c6 00 00 20 00 	add    $0x200000,%rsi
  4018ee:	48 83 c6 f8          	add    $0xfffffffffffffff8,%rsi
  4018f2:	48 89 34 25 00 72 40 	mov    %rsi,0x407200
  4018f9:	00 
  4018fa:	48 8b 04 25 00 72 40 	mov    0x407200,%rax
  401901:	00 
  401902:	48 89 55 e0          	mov    %rdx,-0x20(%rbp)
  401906:	48 99                	cqto   
  401908:	48 f7 f9             	idiv   %rcx
  40190b:	48 8b 34 25 00 72 40 	mov    0x407200,%rsi
  401912:	00 
  401913:	48 8b 7d e0          	mov    -0x20(%rbp),%rdi
  401917:	48 29 d7             	sub    %rdx,%rdi
  40191a:	48 01 fe             	add    %rdi,%rsi
  40191d:	48 89 34 25 00 72 40 	mov    %rsi,0x407200
  401924:	00 
  401925:	48 8b 14 25 00 72 40 	mov    0x407200,%rdx
  40192c:	00 
  40192d:	48 89 d0             	mov    %rdx,%rax
  401930:	48 99                	cqto   
  401932:	48 f7 f9             	idiv   %rcx
  401935:	48 83 fa 00          	cmp    $0x0,%rdx
  401939:	0f 85 05 00 00 00    	jne    401944 <launcher+0xf4>
  40193f:	e9 28 00 00 00       	jmpq   40196c <launcher+0x11c>
  401944:	48 bf 08 32 40 00 00 	movabs $0x403208,%rdi
  40194b:	00 00 00 
  40194e:	48 be 29 32 40 00 00 	movabs $0x403229,%rsi
  401955:	00 00 00 
  401958:	ba 7e 01 00 00       	mov    $0x17e,%edx
  40195d:	48 b9 33 32 40 00 00 	movabs $0x403233,%rcx
  401964:	00 00 00 
  401967:	e8 84 f7 ff ff       	callq  4010f0 <__assert_fail@plt>
  40196c:	48 8b 04 25 00 72 40 	mov    0x407200,%rax
  401973:	00 
  401974:	48 89 45 d8          	mov    %rax,-0x28(%rbp)
  401978:	48 8b 4d d8          	mov    -0x28(%rbp),%rcx
  40197c:	48 89 e0             	mov    %rsp,%rax
  40197f:	48 89 cc             	mov    %rcx,%rsp
  401982:	48 89 c2             	mov    %rax,%rdx
  401985:	48 89 14 25 f8 71 40 	mov    %rdx,0x4071f8
  40198c:	00 
  40198d:	8b 3c 25 ec 71 40 00 	mov    0x4071ec,%edi
  401994:	8b 34 25 f0 71 40 00 	mov    0x4071f0,%esi
  40199b:	e8 30 00 00 00       	callq  4019d0 <launch>
  4019a0:	48 8b 0c 25 f8 71 40 	mov    0x4071f8,%rcx
  4019a7:	00 
  4019a8:	48 89 cc             	mov    %rcx,%rsp
  4019ab:	b8 00 00 20 00       	mov    $0x200000,%eax
  4019b0:	89 c6                	mov    %eax,%esi
  4019b2:	48 8b 7d f0          	mov    -0x10(%rbp),%rdi
  4019b6:	e8 35 f8 ff ff       	callq  4011f0 <munmap@plt>
  4019bb:	89 45 d4             	mov    %eax,-0x2c(%rbp)
  4019be:	48 83 c4 30          	add    $0x30,%rsp
  4019c2:	5d                   	pop    %rbp
  4019c3:	c3                   	retq   
  4019c4:	66 2e 0f 1f 84 00 00 	nopw   %cs:0x0(%rax,%rax,1)
  4019cb:	00 00 00 
  4019ce:	66 90                	xchg   %ax,%ax

00000000004019d0 <launch>:
  4019d0:	55                   	push   %rbp
  4019d1:	48 89 e5             	mov    %rsp,%rbp
  4019d4:	48 83 ec 70          	sub    $0x70,%rsp
  4019d8:	89 7d fc             	mov    %edi,-0x4(%rbp)
  4019db:	89 75 f8             	mov    %esi,-0x8(%rbp)
  4019de:	48 c7 45 a8 00 00 00 	movq   $0x0,-0x58(%rbp)
  4019e5:	00 
  4019e6:	48 8d 45 b0          	lea    -0x50(%rbp),%rax
  4019ea:	89 c6                	mov    %eax,%esi
  4019ec:	81 e6 f0 3f 00 00    	and    $0x3ff0,%esi
  4019f2:	89 f0                	mov    %esi,%eax
  4019f4:	48 89 45 a8          	mov    %rax,-0x58(%rbp)
  4019f8:	48 8b 45 a8          	mov    -0x58(%rbp),%rax
  4019fc:	48 63 4d f8          	movslq -0x8(%rbp),%rcx
  401a00:	48 8d 44 08 0f       	lea    0xf(%rax,%rcx,1),%rax
  401a05:	48 83 e0 f0          	and    $0xfffffffffffffff0,%rax
  401a09:	48 89 e1             	mov    %rsp,%rcx
  401a0c:	48 29 c1             	sub    %rax,%rcx
  401a0f:	48 89 cc             	mov    %rcx,%rsp
  401a12:	48 89 4d a0          	mov    %rcx,-0x60(%rbp)
  401a16:	48 8b 45 a0          	mov    -0x60(%rbp),%rax
  401a1a:	48 8b 55 a8          	mov    -0x58(%rbp),%rdx
  401a1e:	48 89 c7             	mov    %rax,%rdi
  401a21:	be f4 00 00 00       	mov    $0xf4,%esi
  401a26:	e8 d5 f6 ff ff       	callq  401100 <memset@plt>
  401a2b:	48 8b 3c 25 a0 71 40 	mov    0x4071a0,%rdi
  401a32:	00 
  401a33:	e8 88 f7 ff ff       	callq  4011c0 <fileno@plt>
  401a38:	89 c7                	mov    %eax,%edi
  401a3a:	e8 41 f6 ff ff       	callq  401080 <isatty@plt>
  401a3f:	83 f8 00             	cmp    $0x0,%eax
  401a42:	0f 84 14 00 00 00    	je     401a5c <launch+0x8c>
  401a48:	48 bf ee 32 40 00 00 	movabs $0x4032ee,%rdi
  401a4f:	00 00 00 
  401a52:	b0 00                	mov    $0x0,%al
  401a54:	e8 87 f6 ff ff       	callq  4010e0 <printf@plt>
  401a59:	89 45 9c             	mov    %eax,-0x64(%rbp)
  401a5c:	83 7d fc 00          	cmpl   $0x0,-0x4(%rbp)
  401a60:	0f 84 0a 00 00 00    	je     401a70 <launch+0xa0>
  401a66:	e8 f5 fb ff ff       	callq  401660 <test_exploitn>
  401a6b:	e9 05 00 00 00       	jmpq   401a75 <launch+0xa5>
  401a70:	e8 2b fa ff ff       	callq  4014a0 <test_exploit>
  401a75:	83 3c 25 e4 71 40 00 	cmpl   $0x0,0x4071e4
  401a7c:	00 
  401a7d:	0f 85 1f 00 00 00    	jne    401aa2 <launch+0xd2>
  401a83:	48 bf 54 31 40 00 00 	movabs $0x403154,%rdi
  401a8a:	00 00 00 
  401a8d:	b0 00                	mov    $0x0,%al
  401a8f:	e8 4c f6 ff ff       	callq  4010e0 <printf@plt>
  401a94:	c7 04 25 e4 71 40 00 	movl   $0x0,0x4071e4
  401a9b:	00 00 00 00 
  401a9f:	89 45 98             	mov    %eax,-0x68(%rbp)
  401aa2:	48 89 ec             	mov    %rbp,%rsp
  401aa5:	5d                   	pop    %rbp
  401aa6:	c3                   	retq   
  401aa7:	66 0f 1f 84 00 00 00 	nopw   0x0(%rax,%rax,1)
  401aae:	00 00 

0000000000401ab0 <uniqueval>:
  401ab0:	55                   	push   %rbp
  401ab1:	48 89 e5             	mov    %rsp,%rbp
  401ab4:	e8 e7 f5 ff ff       	callq  4010a0 <getpid@plt>
  401ab9:	89 c7                	mov    %eax,%edi
  401abb:	e8 90 f5 ff ff       	callq  401050 <srandom@plt>
  401ac0:	e8 0b f7 ff ff       	callq  4011d0 <random@plt>
  401ac5:	89 c7                	mov    %eax,%edi
  401ac7:	89 f8                	mov    %edi,%eax
  401ac9:	5d                   	pop    %rbp
  401aca:	c3                   	retq   
  401acb:	0f 1f 44 00 00       	nopl   0x0(%rax,%rax,1)

0000000000401ad0 <main>:
  401ad0:	55                   	push   %rbp
  401ad1:	48 89 e5             	mov    %rsp,%rbp
  401ad4:	48 83 ec 70          	sub    $0x70,%rsp
  401ad8:	c7 45 fc 00 00 00 00 	movl   $0x0,-0x4(%rbp)
  401adf:	89 7d f8             	mov    %edi,-0x8(%rbp)
  401ae2:	48 89 75 f0          	mov    %rsi,-0x10(%rbp)
  401ae6:	c7 45 ec 00 00 00 00 	movl   $0x0,-0x14(%rbp)
  401aed:	c7 45 e8 00 00 00 00 	movl   $0x0,-0x18(%rbp)
  401af4:	c7 45 d4 01 00 00 00 	movl   $0x1,-0x2c(%rbp)
  401afb:	bf 0b 00 00 00       	mov    $0xb,%edi
  401b00:	48 be d0 17 40 00 00 	movabs $0x4017d0,%rsi
  401b07:	00 00 00 
  401b0a:	e8 61 f6 ff ff       	callq  401170 <signal@plt>
  401b0f:	bf 07 00 00 00       	mov    $0x7,%edi
  401b14:	48 be 90 17 40 00 00 	movabs $0x401790,%rsi
  401b1b:	00 00 00 
  401b1e:	48 89 45 c0          	mov    %rax,-0x40(%rbp)
  401b22:	e8 49 f6 ff ff       	callq  401170 <signal@plt>
  401b27:	bf 04 00 00 00       	mov    $0x4,%edi
  401b2c:	48 be 10 18 40 00 00 	movabs $0x401810,%rsi
  401b33:	00 00 00 
  401b36:	48 89 45 b8          	mov    %rax,-0x48(%rbp)
  401b3a:	e8 31 f6 ff ff       	callq  401170 <signal@plt>
  401b3f:	48 8b 34 25 a0 71 40 	mov    0x4071a0,%rsi
  401b46:	00 
  401b47:	48 89 34 25 d8 71 40 	mov    %rsi,0x4071d8
  401b4e:	00 
  401b4f:	48 89 45 b0          	mov    %rax,-0x50(%rbp)
  401b53:	8b 7d f8             	mov    -0x8(%rbp),%edi
  401b56:	48 8b 75 f0          	mov    -0x10(%rbp),%rsi
  401b5a:	48 ba 4b 32 40 00 00 	movabs $0x40324b,%rdx
  401b61:	00 00 00 
  401b64:	e8 b7 f6 ff ff       	callq  401220 <getopt@plt>
  401b69:	88 c1                	mov    %al,%cl
  401b6b:	88 4d d3             	mov    %cl,-0x2d(%rbp)
  401b6e:	0f be c1             	movsbl %cl,%eax
  401b71:	83 f8 ff             	cmp    $0xffffffff,%eax
  401b74:	0f 84 87 00 00 00    	je     401c01 <main+0x131>
  401b7a:	0f be 45 d3          	movsbl -0x2d(%rbp),%eax
  401b7e:	89 c1                	mov    %eax,%ecx
  401b80:	83 e9 67             	sub    $0x67,%ecx
  401b83:	89 45 ac             	mov    %eax,-0x54(%rbp)
  401b86:	89 4d a8             	mov    %ecx,-0x58(%rbp)
  401b89:	0f 84 51 00 00 00    	je     401be0 <main+0x110>
  401b8f:	e9 00 00 00 00       	jmpq   401b94 <main+0xc4>
  401b94:	8b 45 ac             	mov    -0x54(%rbp),%eax
  401b97:	83 e8 68             	sub    $0x68,%eax
  401b9a:	89 45 a4             	mov    %eax,-0x5c(%rbp)
  401b9d:	0f 84 19 00 00 00    	je     401bbc <main+0xec>
  401ba3:	e9 00 00 00 00       	jmpq   401ba8 <main+0xd8>
  401ba8:	8b 45 ac             	mov    -0x54(%rbp),%eax
  401bab:	83 e8 6e             	sub    $0x6e,%eax
  401bae:	89 45 a0             	mov    %eax,-0x60(%rbp)
  401bb1:	0f 84 16 00 00 00    	je     401bcd <main+0xfd>
  401bb7:	e9 34 00 00 00       	jmpq   401bf0 <main+0x120>
  401bbc:	48 8b 45 f0          	mov    -0x10(%rbp),%rax
  401bc0:	48 8b 38             	mov    (%rax),%rdi
  401bc3:	e8 a8 01 00 00       	callq  401d70 <usage>
  401bc8:	e9 2f 00 00 00       	jmpq   401bfc <main+0x12c>
  401bcd:	c7 45 e8 01 00 00 00 	movl   $0x1,-0x18(%rbp)
  401bd4:	c7 45 d4 05 00 00 00 	movl   $0x5,-0x2c(%rbp)
  401bdb:	e9 1c 00 00 00       	jmpq   401bfc <main+0x12c>
  401be0:	c7 04 25 d4 71 40 00 	movl   $0x1,0x4071d4
  401be7:	01 00 00 00 
  401beb:	e9 0c 00 00 00       	jmpq   401bfc <main+0x12c>
  401bf0:	48 8b 45 f0          	mov    -0x10(%rbp),%rax
  401bf4:	48 8b 38             	mov    (%rax),%rdi
  401bf7:	e8 74 01 00 00       	callq  401d70 <usage>
  401bfc:	e9 52 ff ff ff       	jmpq   401b53 <main+0x83>
  401c01:	48 bf 54 32 40 00 00 	movabs $0x403254,%rdi
  401c08:	00 00 00 
  401c0b:	48 be bc 35 40 00 00 	movabs $0x4035bc,%rsi
  401c12:	00 00 00 
  401c15:	e8 f6 f5 ff ff       	callq  401210 <fopen@plt>
  401c1a:	48 89 45 c8          	mov    %rax,-0x38(%rbp)
  401c1e:	48 83 7d c8 00       	cmpq   $0x0,-0x38(%rbp)
  401c23:	0f 85 1e 00 00 00    	jne    401c47 <main+0x177>
  401c29:	48 bf 61 32 40 00 00 	movabs $0x403261,%rdi
  401c30:	00 00 00 
  401c33:	b0 00                	mov    $0x0,%al
  401c35:	e8 a6 f4 ff ff       	callq  4010e0 <printf@plt>
  401c3a:	bf 01 00 00 00       	mov    $0x1,%edi
  401c3f:	89 45 9c             	mov    %eax,-0x64(%rbp)
  401c42:	e8 09 f6 ff ff       	callq  401250 <exit@plt>
  401c47:	48 8b 7d c8          	mov    -0x38(%rbp),%rdi
  401c4b:	48 be 9e 32 40 00 00 	movabs $0x40329e,%rsi
  401c52:	00 00 00 
  401c55:	48 ba e0 71 40 00 00 	movabs $0x4071e0,%rdx
  401c5c:	00 00 00 
  401c5f:	b0 00                	mov    $0x0,%al
  401c61:	e8 0a f4 ff ff       	callq  401070 <__isoc99_fscanf@plt>
  401c66:	83 f8 01             	cmp    $0x1,%eax
  401c69:	0f 84 1e 00 00 00    	je     401c8d <main+0x1bd>
  401c6f:	48 bf a3 32 40 00 00 	movabs $0x4032a3,%rdi
  401c76:	00 00 00 
  401c79:	b0 00                	mov    $0x0,%al
  401c7b:	e8 60 f4 ff ff       	callq  4010e0 <printf@plt>
  401c80:	bf 01 00 00 00       	mov    $0x1,%edi
  401c85:	89 45 98             	mov    %eax,-0x68(%rbp)
  401c88:	e8 c3 f5 ff ff       	callq  401250 <exit@plt>
  401c8d:	e8 5e 01 00 00       	callq  401df0 <initialize_bomb>
  401c92:	8b 34 25 e0 71 40 00 	mov    0x4071e0,%esi
  401c99:	48 bf e0 32 40 00 00 	movabs $0x4032e0,%rdi
  401ca0:	00 00 00 
  401ca3:	b0 00                	mov    $0x0,%al
  401ca5:	e8 36 f4 ff ff       	callq  4010e0 <printf@plt>
  401caa:	8b 3c 25 e0 71 40 00 	mov    0x4071e0,%edi
  401cb1:	89 45 94             	mov    %eax,-0x6c(%rbp)
  401cb4:	e8 97 f3 ff ff       	callq  401050 <srandom@plt>
  401cb9:	e8 12 f5 ff ff       	callq  4011d0 <random@plt>
  401cbe:	be 04 00 00 00       	mov    $0x4,%esi
  401cc3:	48 25 f0 0f 00 00    	and    $0xff0,%rax
  401cc9:	48 05 00 01 00 00    	add    $0x100,%rax
  401ccf:	89 c7                	mov    %eax,%edi
  401cd1:	89 7d ec             	mov    %edi,-0x14(%rbp)
  401cd4:	48 63 7d d4          	movslq -0x2c(%rbp),%rdi
  401cd8:	e8 73 f4 ff ff       	callq  401150 <calloc@plt>
  401cdd:	48 89 45 d8          	mov    %rax,-0x28(%rbp)
  401ce1:	48 8b 45 d8          	mov    -0x28(%rbp),%rax
  401ce5:	c7 00 00 00 00 00    	movl   $0x0,(%rax)
  401ceb:	c7 45 e4 01 00 00 00 	movl   $0x1,-0x1c(%rbp)
  401cf2:	8b 45 e4             	mov    -0x1c(%rbp),%eax
  401cf5:	3b 45 d4             	cmp    -0x2c(%rbp),%eax
  401cf8:	0f 8d 30 00 00 00    	jge    401d2e <main+0x25e>
  401cfe:	e8 cd f4 ff ff       	callq  4011d0 <random@plt>
  401d03:	b9 80 00 00 00       	mov    $0x80,%ecx
  401d08:	89 ca                	mov    %ecx,%edx
  401d0a:	48 25 f0 00 00 00    	and    $0xf0,%rax
  401d10:	48 29 c2             	sub    %rax,%rdx
  401d13:	89 d1                	mov    %edx,%ecx
  401d15:	48 8b 45 d8          	mov    -0x28(%rbp),%rax
  401d19:	48 63 55 e4          	movslq -0x1c(%rbp),%rdx
  401d1d:	89 0c 90             	mov    %ecx,(%rax,%rdx,4)
  401d20:	8b 45 e4             	mov    -0x1c(%rbp),%eax
  401d23:	83 c0 01             	add    $0x1,%eax
  401d26:	89 45 e4             	mov    %eax,-0x1c(%rbp)
  401d29:	e9 c4 ff ff ff       	jmpq   401cf2 <main+0x222>
  401d2e:	c7 45 e4 00 00 00 00 	movl   $0x0,-0x1c(%rbp)
  401d35:	8b 45 e4             	mov    -0x1c(%rbp),%eax
  401d38:	3b 45 d4             	cmp    -0x2c(%rbp),%eax
  401d3b:	0f 8d 26 00 00 00    	jge    401d67 <main+0x297>
  401d41:	8b 7d e8             	mov    -0x18(%rbp),%edi
  401d44:	48 8b 45 d8          	mov    -0x28(%rbp),%rax
  401d48:	48 63 4d e4          	movslq -0x1c(%rbp),%rcx
  401d4c:	8b 14 88             	mov    (%rax,%rcx,4),%edx
  401d4f:	03 55 ec             	add    -0x14(%rbp),%edx
  401d52:	89 d6                	mov    %edx,%esi
  401d54:	e8 f7 fa ff ff       	callq  401850 <launcher>
  401d59:	8b 45 e4             	mov    -0x1c(%rbp),%eax
  401d5c:	83 c0 01             	add    $0x1,%eax
  401d5f:	89 45 e4             	mov    %eax,-0x1c(%rbp)
  401d62:	e9 ce ff ff ff       	jmpq   401d35 <main+0x265>
  401d67:	31 c0                	xor    %eax,%eax
  401d69:	48 83 c4 70          	add    $0x70,%rsp
  401d6d:	5d                   	pop    %rbp
  401d6e:	c3                   	retq   
  401d6f:	90                   	nop

0000000000401d70 <usage>:
  401d70:	55                   	push   %rbp
  401d71:	48 89 e5             	mov    %rsp,%rbp
  401d74:	48 83 ec 20          	sub    $0x20,%rsp
  401d78:	48 89 7d f8          	mov    %rdi,-0x8(%rbp)
  401d7c:	48 8b 75 f8          	mov    -0x8(%rbp),%rsi
  401d80:	48 bf fb 32 40 00 00 	movabs $0x4032fb,%rdi
  401d87:	00 00 00 
  401d8a:	b0 00                	mov    $0x0,%al
  401d8c:	e8 4f f3 ff ff       	callq  4010e0 <printf@plt>
  401d91:	48 bf 0c 33 40 00 00 	movabs $0x40330c,%rdi
  401d98:	00 00 00 
  401d9b:	89 45 f4             	mov    %eax,-0xc(%rbp)
  401d9e:	b0 00                	mov    $0x0,%al
  401da0:	e8 3b f3 ff ff       	callq  4010e0 <printf@plt>
  401da5:	48 bf 26 33 40 00 00 	movabs $0x403326,%rdi
  401dac:	00 00 00 
  401daf:	89 45 f0             	mov    %eax,-0x10(%rbp)
  401db2:	b0 00                	mov    $0x0,%al
  401db4:	e8 27 f3 ff ff       	callq  4010e0 <printf@plt>
  401db9:	31 ff                	xor    %edi,%edi
  401dbb:	89 45 ec             	mov    %eax,-0x14(%rbp)
  401dbe:	e8 8d f4 ff ff       	callq  401250 <exit@plt>
  401dc3:	66 2e 0f 1f 84 00 00 	nopw   %cs:0x0(%rax,%rax,1)
  401dca:	00 00 00 
  401dcd:	0f 1f 00             	nopl   (%rax)

0000000000401dd0 <save_term>:
  401dd0:	55                   	push   %rbp
  401dd1:	48 89 e5             	mov    %rsp,%rbp
  401dd4:	6b 04 25 e8 71 40 00 	imul   $0x3,0x4071e8,%eax
  401ddb:	03 
  401ddc:	48 63 c8             	movslq %eax,%rcx
  401ddf:	c6 04 0d 10 72 40 00 	movb   $0x0,0x407210(,%rcx,1)
  401de6:	00 
  401de7:	5d                   	pop    %rbp
  401de8:	c3                   	retq   
  401de9:	0f 1f 80 00 00 00 00 	nopl   0x0(%rax)

0000000000401df0 <initialize_bomb>:
  401df0:	55                   	push   %rbp
  401df1:	48 89 e5             	mov    %rsp,%rbp
  401df4:	48 81 ec 30 24 00 00 	sub    $0x2430,%rsp
  401dfb:	c7 85 ec db ff ff 00 	movl   $0x0,-0x2414(%rbp)
  401e02:	00 00 00 
  401e05:	83 3c 25 d4 71 40 00 	cmpl   $0x0,0x4071d4
  401e0c:	00 
  401e0d:	0f 84 0a 00 00 00    	je     401e1d <initialize_bomb+0x2d>
  401e13:	bf ff ff ff ff       	mov    $0xffffffff,%edi
  401e18:	e8 53 0b 00 00       	callq  402970 <init_timeout>
  401e1d:	83 3c 25 d0 71 40 00 	cmpl   $0x0,0x4071d0
  401e24:	00 
  401e25:	0f 84 5c 01 00 00    	je     401f87 <initialize_bomb+0x197>
  401e2b:	b8 00 04 00 00       	mov    $0x400,%eax
  401e30:	89 c6                	mov    %eax,%esi
  401e32:	48 8d bd f0 fb ff ff 	lea    -0x410(%rbp),%rdi
  401e39:	e8 f2 f3 ff ff       	callq  401230 <gethostname@plt>
  401e3e:	83 f8 00             	cmp    $0x0,%eax
  401e41:	0f 84 21 00 00 00    	je     401e68 <initialize_bomb+0x78>
  401e47:	48 bf 63 33 40 00 00 	movabs $0x403363,%rdi
  401e4e:	00 00 00 
  401e51:	b0 00                	mov    $0x0,%al
  401e53:	e8 88 f2 ff ff       	callq  4010e0 <printf@plt>
  401e58:	bf 08 00 00 00       	mov    $0x8,%edi
  401e5d:	89 85 e8 db ff ff    	mov    %eax,-0x2418(%rbp)
  401e63:	e8 e8 f3 ff ff       	callq  401250 <exit@plt>
  401e68:	c7 45 fc 00 00 00 00 	movl   $0x0,-0x4(%rbp)
  401e6f:	48 63 45 fc          	movslq -0x4(%rbp),%rax
  401e73:	48 83 3c c5 70 51 40 	cmpq   $0x0,0x405170(,%rax,8)
  401e7a:	00 00 
  401e7c:	0f 84 43 00 00 00    	je     401ec5 <initialize_bomb+0xd5>
  401e82:	48 8d b5 f0 fb ff ff 	lea    -0x410(%rbp),%rsi
  401e89:	48 63 45 fc          	movslq -0x4(%rbp),%rax
  401e8d:	48 8b 3c c5 70 51 40 	mov    0x405170(,%rax,8),%rdi
  401e94:	00 
  401e95:	e8 96 f1 ff ff       	callq  401030 <strcasecmp@plt>
  401e9a:	83 f8 00             	cmp    $0x0,%eax
  401e9d:	0f 85 0f 00 00 00    	jne    401eb2 <initialize_bomb+0xc2>
  401ea3:	c7 85 ec db ff ff 01 	movl   $0x1,-0x2414(%rbp)
  401eaa:	00 00 00 
  401ead:	e9 13 00 00 00       	jmpq   401ec5 <initialize_bomb+0xd5>
  401eb2:	e9 00 00 00 00       	jmpq   401eb7 <initialize_bomb+0xc7>
  401eb7:	8b 45 fc             	mov    -0x4(%rbp),%eax
  401eba:	83 c0 01             	add    $0x1,%eax
  401ebd:	89 45 fc             	mov    %eax,-0x4(%rbp)
  401ec0:	e9 aa ff ff ff       	jmpq   401e6f <initialize_bomb+0x7f>
  401ec5:	83 bd ec db ff ff 00 	cmpl   $0x0,-0x2414(%rbp)
  401ecc:	0f 85 73 00 00 00    	jne    401f45 <initialize_bomb+0x155>
  401ed2:	48 8d b5 f0 fb ff ff 	lea    -0x410(%rbp),%rsi
  401ed9:	48 bf 9c 33 40 00 00 	movabs $0x40339c,%rdi
  401ee0:	00 00 00 
  401ee3:	b0 00                	mov    $0x0,%al
  401ee5:	e8 f6 f1 ff ff       	callq  4010e0 <printf@plt>
  401eea:	c7 45 fc 00 00 00 00 	movl   $0x0,-0x4(%rbp)
  401ef1:	89 85 e4 db ff ff    	mov    %eax,-0x241c(%rbp)
  401ef7:	48 63 45 fc          	movslq -0x4(%rbp),%rax
  401efb:	48 83 3c c5 70 51 40 	cmpq   $0x0,0x405170(,%rax,8)
  401f02:	00 00 
  401f04:	0f 84 31 00 00 00    	je     401f3b <initialize_bomb+0x14b>
  401f0a:	48 63 45 fc          	movslq -0x4(%rbp),%rax
  401f0e:	48 8b 34 c5 70 51 40 	mov    0x405170(,%rax,8),%rsi
  401f15:	00 
  401f16:	48 bf e8 33 40 00 00 	movabs $0x4033e8,%rdi
  401f1d:	00 00 00 
  401f20:	b0 00                	mov    $0x0,%al
  401f22:	e8 b9 f1 ff ff       	callq  4010e0 <printf@plt>
  401f27:	89 85 e0 db ff ff    	mov    %eax,-0x2420(%rbp)
  401f2d:	8b 45 fc             	mov    -0x4(%rbp),%eax
  401f30:	83 c0 01             	add    $0x1,%eax
  401f33:	89 45 fc             	mov    %eax,-0x4(%rbp)
  401f36:	e9 bc ff ff ff       	jmpq   401ef7 <initialize_bomb+0x107>
  401f3b:	bf 08 00 00 00       	mov    $0x8,%edi
  401f40:	e8 0b f3 ff ff       	callq  401250 <exit@plt>
  401f45:	48 8d bd f0 db ff ff 	lea    -0x2410(%rbp),%rdi
  401f4c:	e8 7f 0a 00 00       	callq  4029d0 <init_driver>
  401f51:	83 f8 00             	cmp    $0x0,%eax
  401f54:	0f 8d 28 00 00 00    	jge    401f82 <initialize_bomb+0x192>
  401f5a:	48 8d b5 f0 db ff ff 	lea    -0x2410(%rbp),%rsi
  401f61:	48 bf d7 33 40 00 00 	movabs $0x4033d7,%rdi
  401f68:	00 00 00 
  401f6b:	b0 00                	mov    $0x0,%al
  401f6d:	e8 6e f1 ff ff       	callq  4010e0 <printf@plt>
  401f72:	bf 08 00 00 00       	mov    $0x8,%edi
  401f77:	89 85 dc db ff ff    	mov    %eax,-0x2424(%rbp)
  401f7d:	e8 ce f2 ff ff       	callq  401250 <exit@plt>
  401f82:	e9 00 00 00 00       	jmpq   401f87 <initialize_bomb+0x197>
  401f87:	48 81 c4 30 24 00 00 	add    $0x2430,%rsp
  401f8e:	5d                   	pop    %rbp
  401f8f:	c3                   	retq   

0000000000401f90 <validate>:
  401f90:	55                   	push   %rbp
  401f91:	48 89 e5             	mov    %rsp,%rbp
  401f94:	48 83 ec 20          	sub    $0x20,%rsp
  401f98:	89 7d fc             	mov    %edi,-0x4(%rbp)
  401f9b:	83 7d fc 00          	cmpl   $0x0,-0x4(%rbp)
  401f9f:	0f 8c 0a 00 00 00    	jl     401faf <validate+0x1f>
  401fa5:	83 7d fc 06          	cmpl   $0x6,-0x4(%rbp)
  401fa9:	0f 8c 19 00 00 00    	jl     401fc8 <validate+0x38>
  401faf:	48 bf ec 33 40 00 00 	movabs $0x4033ec,%rdi
  401fb6:	00 00 00 
  401fb9:	b0 00                	mov    $0x0,%al
  401fbb:	e8 20 f1 ff ff       	callq  4010e0 <printf@plt>
  401fc0:	89 45 f8             	mov    %eax,-0x8(%rbp)
  401fc3:	e9 6a 00 00 00       	jmpq   402032 <validate+0xa2>
  401fc8:	c7 04 25 e4 71 40 00 	movl   $0x1,0x4071e4
  401fcf:	01 00 00 00 
  401fd3:	48 63 45 fc          	movslq -0x4(%rbp),%rax
  401fd7:	8b 0c 85 70 71 40 00 	mov    0x407170(,%rax,4),%ecx
  401fde:	83 c1 ff             	add    $0xffffffff,%ecx
  401fe1:	89 0c 85 70 71 40 00 	mov    %ecx,0x407170(,%rax,4)
  401fe8:	83 f9 00             	cmp    $0x0,%ecx
  401feb:	0f 8e 19 00 00 00    	jle    40200a <validate+0x7a>
  401ff1:	48 bf 13 34 40 00 00 	movabs $0x403413,%rdi
  401ff8:	00 00 00 
  401ffb:	b0 00                	mov    $0x0,%al
  401ffd:	e8 de f0 ff ff       	callq  4010e0 <printf@plt>
  402002:	89 45 f4             	mov    %eax,-0xc(%rbp)
  402005:	e9 14 00 00 00       	jmpq   40201e <validate+0x8e>
  40200a:	48 bf 1f 34 40 00 00 	movabs $0x40341f,%rdi
  402011:	00 00 00 
  402014:	b0 00                	mov    $0x0,%al
  402016:	e8 c5 f0 ff ff       	callq  4010e0 <printf@plt>
  40201b:	89 45 f0             	mov    %eax,-0x10(%rbp)
  40201e:	48 bf 26 34 40 00 00 	movabs $0x403426,%rdi
  402025:	00 00 00 
  402028:	b0 00                	mov    $0x0,%al
  40202a:	e8 b1 f0 ff ff       	callq  4010e0 <printf@plt>
  40202f:	89 45 ec             	mov    %eax,-0x14(%rbp)
  402032:	48 83 c4 20          	add    $0x20,%rsp
  402036:	5d                   	pop    %rbp
  402037:	c3                   	retq   
  402038:	0f 1f 84 00 00 00 00 	nopl   0x0(%rax,%rax,1)
  40203f:	00 

0000000000402040 <sigalrm_handler>:
  402040:	55                   	push   %rbp
  402041:	48 89 e5             	mov    %rsp,%rbp
  402044:	48 83 ec 10          	sub    $0x10,%rsp
  402048:	89 7d fc             	mov    %edi,-0x4(%rbp)
  40204b:	48 bf 31 34 40 00 00 	movabs $0x403431,%rdi
  402052:	00 00 00 
  402055:	be 05 00 00 00       	mov    $0x5,%esi
  40205a:	b0 00                	mov    $0x0,%al
  40205c:	e8 7f f0 ff ff       	callq  4010e0 <printf@plt>
  402061:	bf 01 00 00 00       	mov    $0x1,%edi
  402066:	89 45 f8             	mov    %eax,-0x8(%rbp)
  402069:	e8 e2 f1 ff ff       	callq  401250 <exit@plt>
  40206e:	66 90                	xchg   %ax,%ax

0000000000402070 <submitr>:
  402070:	55                   	push   %rbp
  402071:	48 89 e5             	mov    %rsp,%rbp
  402074:	48 81 ec 60 a1 00 00 	sub    $0xa160,%rsp
  40207b:	48 8b 45 10          	mov    0x10(%rbp),%rax
  40207f:	45 31 d2             	xor    %r10d,%r10d
  402082:	48 89 7d f0          	mov    %rdi,-0x10(%rbp)
  402086:	89 75 ec             	mov    %esi,-0x14(%rbp)
  402089:	48 89 55 e0          	mov    %rdx,-0x20(%rbp)
  40208d:	48 89 4d d8          	mov    %rcx,-0x28(%rbp)
  402091:	4c 89 45 d0          	mov    %r8,-0x30(%rbp)
  402095:	4c 89 4d c8          	mov    %r9,-0x38(%rbp)
  402099:	c7 85 7c 7f ff ff 00 	movl   $0x0,-0x8084(%rbp)
  4020a0:	00 00 00 
  4020a3:	bf 02 00 00 00       	mov    $0x2,%edi
  4020a8:	be 01 00 00 00       	mov    $0x1,%esi
  4020ad:	44 89 d2             	mov    %r10d,%edx
  4020b0:	48 89 85 68 5f ff ff 	mov    %rax,-0xa098(%rbp)
  4020b7:	e8 d4 f1 ff ff       	callq  401290 <socket@plt>
  4020bc:	89 45 c4             	mov    %eax,-0x3c(%rbp)
  4020bf:	83 f8 00             	cmp    $0x0,%eax
  4020c2:	0f 8d 23 00 00 00    	jge    4020eb <submitr+0x7b>
  4020c8:	48 8b 7d 10          	mov    0x10(%rbp),%rdi
  4020cc:	b8 55 34 40 00       	mov    $0x403455,%eax
  4020d1:	89 c6                	mov    %eax,%esi
  4020d3:	e8 88 ef ff ff       	callq  401060 <strcpy@plt>
  4020d8:	c7 45 fc ff ff ff ff 	movl   $0xffffffff,-0x4(%rbp)
  4020df:	48 89 85 60 5f ff ff 	mov    %rax,-0xa0a0(%rbp)
  4020e6:	e9 b4 04 00 00       	jmpq   40259f <submitr+0x52f>
  4020eb:	48 8b 7d f0          	mov    -0x10(%rbp),%rdi
  4020ef:	e8 8c f0 ff ff       	callq  401180 <gethostbyname@plt>
  4020f4:	48 89 45 b8          	mov    %rax,-0x48(%rbp)
  4020f8:	48 83 f8 00          	cmp    $0x0,%rax
  4020fc:	0f 85 39 00 00 00    	jne    40213b <submitr+0xcb>
  402102:	48 8b 7d 10          	mov    0x10(%rbp),%rdi
  402106:	48 8b 55 f0          	mov    -0x10(%rbp),%rdx
  40210a:	48 be 7b 34 40 00 00 	movabs $0x40347b,%rsi
  402111:	00 00 00 
  402114:	b0 00                	mov    $0x0,%al
  402116:	e8 25 f1 ff ff       	callq  401240 <sprintf@plt>
  40211b:	8b 7d c4             	mov    -0x3c(%rbp),%edi
  40211e:	89 85 5c 5f ff ff    	mov    %eax,-0xa0a4(%rbp)
  402124:	e8 f7 ef ff ff       	callq  401120 <close@plt>
  402129:	c7 45 fc ff ff ff ff 	movl   $0xffffffff,-0x4(%rbp)
  402130:	89 85 58 5f ff ff    	mov    %eax,-0xa0a8(%rbp)
  402136:	e9 64 04 00 00       	jmpq   40259f <submitr+0x52f>
  40213b:	31 f6                	xor    %esi,%esi
  40213d:	b8 10 00 00 00       	mov    $0x10,%eax
  402142:	89 c2                	mov    %eax,%edx
  402144:	48 8d 4d a8          	lea    -0x58(%rbp),%rcx
  402148:	48 89 cf             	mov    %rcx,%rdi
  40214b:	48 89 8d 50 5f ff ff 	mov    %rcx,-0xa0b0(%rbp)
  402152:	e8 a9 ef ff ff       	callq  401100 <memset@plt>
  402157:	66 c7 45 a8 02 00    	movw   $0x2,-0x58(%rbp)
  40215d:	48 8b 4d b8          	mov    -0x48(%rbp),%rcx
  402161:	48 8b 49 18          	mov    0x18(%rcx),%rcx
  402165:	48 8b 39             	mov    (%rcx),%rdi
  402168:	48 8b 8d 50 5f ff ff 	mov    -0xa0b0(%rbp),%rcx
  40216f:	48 83 c1 04          	add    $0x4,%rcx
  402173:	48 8b 55 b8          	mov    -0x48(%rbp),%rdx
  402177:	48 63 52 14          	movslq 0x14(%rdx),%rdx
  40217b:	48 89 ce             	mov    %rcx,%rsi
  40217e:	e8 7d f0 ff ff       	callq  401200 <bcopy@plt>
  402183:	8b 45 ec             	mov    -0x14(%rbp),%eax
  402186:	66 41 89 c0          	mov    %ax,%r8w
  40218a:	41 0f b7 f8          	movzwl %r8w,%edi
  40218e:	e8 3d ef ff ff       	callq  4010d0 <htons@plt>
  402193:	66 89 45 aa          	mov    %ax,-0x56(%rbp)
  402197:	8b 7d c4             	mov    -0x3c(%rbp),%edi
  40219a:	48 8d 4d a8          	lea    -0x58(%rbp),%rcx
  40219e:	48 89 ce             	mov    %rcx,%rsi
  4021a1:	ba 10 00 00 00       	mov    $0x10,%edx
  4021a6:	e8 b5 f0 ff ff       	callq  401260 <connect@plt>
  4021ab:	83 f8 00             	cmp    $0x0,%eax
  4021ae:	0f 8d 39 00 00 00    	jge    4021ed <submitr+0x17d>
  4021b4:	48 8b 7d 10          	mov    0x10(%rbp),%rdi
  4021b8:	48 8b 55 f0          	mov    -0x10(%rbp),%rdx
  4021bc:	48 be a7 34 40 00 00 	movabs $0x4034a7,%rsi
  4021c3:	00 00 00 
  4021c6:	b0 00                	mov    $0x0,%al
  4021c8:	e8 73 f0 ff ff       	callq  401240 <sprintf@plt>
  4021cd:	8b 7d c4             	mov    -0x3c(%rbp),%edi
  4021d0:	89 85 4c 5f ff ff    	mov    %eax,-0xa0b4(%rbp)
  4021d6:	e8 45 ef ff ff       	callq  401120 <close@plt>
  4021db:	c7 45 fc ff ff ff ff 	movl   $0xffffffff,-0x4(%rbp)
  4021e2:	89 85 48 5f ff ff    	mov    %eax,-0xa0b8(%rbp)
  4021e8:	e9 b2 03 00 00       	jmpq   40259f <submitr+0x52f>
  4021ed:	48 8b 7d c8          	mov    -0x38(%rbp),%rdi
  4021f1:	e8 ba ee ff ff       	callq  4010b0 <strlen@plt>
  4021f6:	48 89 45 a0          	mov    %rax,-0x60(%rbp)
  4021fa:	48 8b 7d e0          	mov    -0x20(%rbp),%rdi
  4021fe:	e8 ad ee ff ff       	callq  4010b0 <strlen@plt>
  402203:	48 8b 7d d8          	mov    -0x28(%rbp),%rdi
  402207:	48 89 85 40 5f ff ff 	mov    %rax,-0xa0c0(%rbp)
  40220e:	e8 9d ee ff ff       	callq  4010b0 <strlen@plt>
  402213:	48 8b bd 40 5f ff ff 	mov    -0xa0c0(%rbp),%rdi
  40221a:	48 01 c7             	add    %rax,%rdi
  40221d:	48 8b 45 d0          	mov    -0x30(%rbp),%rax
  402221:	48 89 bd 38 5f ff ff 	mov    %rdi,-0xa0c8(%rbp)
  402228:	48 89 c7             	mov    %rax,%rdi
  40222b:	e8 80 ee ff ff       	callq  4010b0 <strlen@plt>
  402230:	48 8b bd 38 5f ff ff 	mov    -0xa0c8(%rbp),%rdi
  402237:	48 01 c7             	add    %rax,%rdi
  40223a:	48 6b 45 a0 03       	imul   $0x3,-0x60(%rbp),%rax
  40223f:	48 01 c7             	add    %rax,%rdi
  402242:	48 81 c7 80 00 00 00 	add    $0x80,%rdi
  402249:	48 89 7d 98          	mov    %rdi,-0x68(%rbp)
  40224d:	48 81 7d 98 00 20 00 	cmpq   $0x2000,-0x68(%rbp)
  402254:	00 
  402255:	0f 86 31 00 00 00    	jbe    40228c <submitr+0x21c>
  40225b:	48 8b 7d 10          	mov    0x10(%rbp),%rdi
  40225f:	b8 cd 34 40 00       	mov    $0x4034cd,%eax
  402264:	89 c6                	mov    %eax,%esi
  402266:	e8 f5 ed ff ff       	callq  401060 <strcpy@plt>
  40226b:	8b 7d c4             	mov    -0x3c(%rbp),%edi
  40226e:	48 89 85 30 5f ff ff 	mov    %rax,-0xa0d0(%rbp)
  402275:	e8 a6 ee ff ff       	callq  401120 <close@plt>
  40227a:	c7 45 fc ff ff ff ff 	movl   $0xffffffff,-0x4(%rbp)
  402281:	89 85 2c 5f ff ff    	mov    %eax,-0xa0d4(%rbp)
  402287:	e9 13 03 00 00       	jmpq   40259f <submitr+0x52f>
  40228c:	48 8d 85 80 9f ff ff 	lea    -0x6080(%rbp),%rax
  402293:	31 f6                	xor    %esi,%esi
  402295:	b9 00 20 00 00       	mov    $0x2000,%ecx
  40229a:	89 ca                	mov    %ecx,%edx
  40229c:	48 89 c7             	mov    %rax,%rdi
  40229f:	48 89 85 20 5f ff ff 	mov    %rax,-0xa0e0(%rbp)
  4022a6:	e8 55 ee ff ff       	callq  401100 <memset@plt>
  4022ab:	48 8b 7d c8          	mov    -0x38(%rbp),%rdi
  4022af:	48 8b b5 20 5f ff ff 	mov    -0xa0e0(%rbp),%rsi
  4022b6:	e8 f5 02 00 00       	callq  4025b0 <urlencode>
  4022bb:	83 f8 00             	cmp    $0x0,%eax
  4022be:	0f 8d 31 00 00 00    	jge    4022f5 <submitr+0x285>
  4022c4:	48 8b 7d 10          	mov    0x10(%rbp),%rdi
  4022c8:	b8 05 35 40 00       	mov    $0x403505,%eax
  4022cd:	89 c6                	mov    %eax,%esi
  4022cf:	e8 8c ed ff ff       	callq  401060 <strcpy@plt>
  4022d4:	8b 7d c4             	mov    -0x3c(%rbp),%edi
  4022d7:	48 89 85 18 5f ff ff 	mov    %rax,-0xa0e8(%rbp)
  4022de:	e8 3d ee ff ff       	callq  401120 <close@plt>
  4022e3:	c7 45 fc ff ff ff ff 	movl   $0xffffffff,-0x4(%rbp)
  4022ea:	89 85 14 5f ff ff    	mov    %eax,-0xa0ec(%rbp)
  4022f0:	e9 aa 02 00 00       	jmpq   40259f <submitr+0x52f>
  4022f5:	4c 8d 8d 80 9f ff ff 	lea    -0x6080(%rbp),%r9
  4022fc:	48 8d bd 80 bf ff ff 	lea    -0x4080(%rbp),%rdi
  402303:	48 8b 55 e0          	mov    -0x20(%rbp),%rdx
  402307:	48 8b 4d d8          	mov    -0x28(%rbp),%rcx
  40230b:	4c 8b 45 d0          	mov    -0x30(%rbp),%r8
  40230f:	48 be 48 35 40 00 00 	movabs $0x403548,%rsi
  402316:	00 00 00 
  402319:	b0 00                	mov    $0x0,%al
  40231b:	e8 20 ef ff ff       	callq  401240 <sprintf@plt>
  402320:	48 8d 8d 80 bf ff ff 	lea    -0x4080(%rbp),%rcx
  402327:	8b 7d c4             	mov    -0x3c(%rbp),%edi
  40232a:	89 bd 10 5f ff ff    	mov    %edi,-0xa0f0(%rbp)
  402330:	48 89 cf             	mov    %rcx,%rdi
  402333:	89 85 0c 5f ff ff    	mov    %eax,-0xa0f4(%rbp)
  402339:	48 89 8d 00 5f ff ff 	mov    %rcx,-0xa100(%rbp)
  402340:	e8 6b ed ff ff       	callq  4010b0 <strlen@plt>
  402345:	8b bd 10 5f ff ff    	mov    -0xa0f0(%rbp),%edi
  40234b:	48 8b b5 00 5f ff ff 	mov    -0xa100(%rbp),%rsi
  402352:	48 89 c2             	mov    %rax,%rdx
  402355:	e8 46 04 00 00       	callq  4027a0 <rio_writen>
  40235a:	48 83 f8 00          	cmp    $0x0,%rax
  40235e:	0f 8d 31 00 00 00    	jge    402395 <submitr+0x325>
  402364:	48 8b 7d 10          	mov    0x10(%rbp),%rdi
  402368:	b8 92 35 40 00       	mov    $0x403592,%eax
  40236d:	89 c6                	mov    %eax,%esi
  40236f:	e8 ec ec ff ff       	callq  401060 <strcpy@plt>
  402374:	8b 7d c4             	mov    -0x3c(%rbp),%edi
  402377:	48 89 85 f8 5e ff ff 	mov    %rax,-0xa108(%rbp)
  40237e:	e8 9d ed ff ff       	callq  401120 <close@plt>
  402383:	c7 45 fc ff ff ff ff 	movl   $0xffffffff,-0x4(%rbp)
  40238a:	89 85 f4 5e ff ff    	mov    %eax,-0xa10c(%rbp)
  402390:	e9 0a 02 00 00       	jmpq   40259f <submitr+0x52f>
  402395:	8b 75 c4             	mov    -0x3c(%rbp),%esi
  402398:	48 8d bd 88 df ff ff 	lea    -0x2078(%rbp),%rdi
  40239f:	e8 ac 04 00 00       	callq  402850 <rio_readinitb>
  4023a4:	be 00 20 00 00       	mov    $0x2000,%esi
  4023a9:	89 f2                	mov    %esi,%edx
  4023ab:	48 8d b5 80 bf ff ff 	lea    -0x4080(%rbp),%rsi
  4023b2:	48 8d bd 88 df ff ff 	lea    -0x2078(%rbp),%rdi
  4023b9:	e8 d2 04 00 00       	callq  402890 <rio_readlineb>
  4023be:	48 83 f8 00          	cmp    $0x0,%rax
  4023c2:	0f 8f 31 00 00 00    	jg     4023f9 <submitr+0x389>
  4023c8:	48 8b 7d 10          	mov    0x10(%rbp),%rdi
  4023cc:	b8 be 35 40 00       	mov    $0x4035be,%eax
  4023d1:	89 c6                	mov    %eax,%esi
  4023d3:	e8 88 ec ff ff       	callq  401060 <strcpy@plt>
  4023d8:	8b 7d c4             	mov    -0x3c(%rbp),%edi
  4023db:	48 89 85 e8 5e ff ff 	mov    %rax,-0xa118(%rbp)
  4023e2:	e8 39 ed ff ff       	callq  401120 <close@plt>
  4023e7:	c7 45 fc ff ff ff ff 	movl   $0xffffffff,-0x4(%rbp)
  4023ee:	89 85 e4 5e ff ff    	mov    %eax,-0xa11c(%rbp)
  4023f4:	e9 a6 01 00 00       	jmpq   40259f <submitr+0x52f>
  4023f9:	4c 8d 85 70 5f ff ff 	lea    -0xa090(%rbp),%r8
  402400:	48 8d 95 80 7f ff ff 	lea    -0x8080(%rbp),%rdx
  402407:	48 8d bd 80 bf ff ff 	lea    -0x4080(%rbp),%rdi
  40240e:	48 be f4 35 40 00 00 	movabs $0x4035f4,%rsi
  402415:	00 00 00 
  402418:	48 8d 8d 7c 7f ff ff 	lea    -0x8084(%rbp),%rcx
  40241f:	b0 00                	mov    $0x0,%al
  402421:	e8 ba ed ff ff       	callq  4011e0 <__isoc99_sscanf@plt>
  402426:	81 bd 7c 7f ff ff c8 	cmpl   $0xc8,-0x8084(%rbp)
  40242d:	00 00 00 
  402430:	89 85 e0 5e ff ff    	mov    %eax,-0xa120(%rbp)
  402436:	0f 84 42 00 00 00    	je     40247e <submitr+0x40e>
  40243c:	48 8d 8d 70 5f ff ff 	lea    -0xa090(%rbp),%rcx
  402443:	48 8b 7d 10          	mov    0x10(%rbp),%rdi
  402447:	8b 95 7c 7f ff ff    	mov    -0x8084(%rbp),%edx
  40244d:	48 be 05 36 40 00 00 	movabs $0x403605,%rsi
  402454:	00 00 00 
  402457:	b0 00                	mov    $0x0,%al
  402459:	e8 e2 ed ff ff       	callq  401240 <sprintf@plt>
  40245e:	8b 7d c4             	mov    -0x3c(%rbp),%edi
  402461:	89 85 dc 5e ff ff    	mov    %eax,-0xa124(%rbp)
  402467:	e8 b4 ec ff ff       	callq  401120 <close@plt>
  40246c:	c7 45 fc ff ff ff ff 	movl   $0xffffffff,-0x4(%rbp)
  402473:	89 85 d8 5e ff ff    	mov    %eax,-0xa128(%rbp)
  402479:	e9 21 01 00 00       	jmpq   40259f <submitr+0x52f>
  40247e:	e9 00 00 00 00       	jmpq   402483 <submitr+0x413>
  402483:	48 8d bd 80 bf ff ff 	lea    -0x4080(%rbp),%rdi
  40248a:	b8 8f 35 40 00       	mov    $0x40358f,%eax
  40248f:	89 c6                	mov    %eax,%esi
  402491:	e8 ca ec ff ff       	callq  401160 <strcmp@plt>
  402496:	83 f8 00             	cmp    $0x0,%eax
  402499:	0f 84 5a 00 00 00    	je     4024f9 <submitr+0x489>
  40249f:	b8 00 20 00 00       	mov    $0x2000,%eax
  4024a4:	89 c2                	mov    %eax,%edx
  4024a6:	48 8d b5 80 bf ff ff 	lea    -0x4080(%rbp),%rsi
  4024ad:	48 8d bd 88 df ff ff 	lea    -0x2078(%rbp),%rdi
  4024b4:	e8 d7 03 00 00       	callq  402890 <rio_readlineb>
  4024b9:	48 83 f8 00          	cmp    $0x0,%rax
  4024bd:	0f 8f 31 00 00 00    	jg     4024f4 <submitr+0x484>
  4024c3:	48 8b 7d 10          	mov    0x10(%rbp),%rdi
  4024c7:	b8 32 36 40 00       	mov    $0x403632,%eax
  4024cc:	89 c6                	mov    %eax,%esi
  4024ce:	e8 8d eb ff ff       	callq  401060 <strcpy@plt>
  4024d3:	8b 7d c4             	mov    -0x3c(%rbp),%edi
  4024d6:	48 89 85 d0 5e ff ff 	mov    %rax,-0xa130(%rbp)
  4024dd:	e8 3e ec ff ff       	callq  401120 <close@plt>
  4024e2:	c7 45 fc ff ff ff ff 	movl   $0xffffffff,-0x4(%rbp)
  4024e9:	89 85 cc 5e ff ff    	mov    %eax,-0xa134(%rbp)
  4024ef:	e9 ab 00 00 00       	jmpq   40259f <submitr+0x52f>
  4024f4:	e9 8a ff ff ff       	jmpq   402483 <submitr+0x413>
  4024f9:	b8 00 20 00 00       	mov    $0x2000,%eax
  4024fe:	89 c2                	mov    %eax,%edx
  402500:	48 8d b5 80 bf ff ff 	lea    -0x4080(%rbp),%rsi
  402507:	48 8d bd 88 df ff ff 	lea    -0x2078(%rbp),%rdi
  40250e:	e8 7d 03 00 00       	callq  402890 <rio_readlineb>
  402513:	48 83 f8 00          	cmp    $0x0,%rax
  402517:	0f 8f 31 00 00 00    	jg     40254e <submitr+0x4de>
  40251d:	48 8b 7d 10          	mov    0x10(%rbp),%rdi
  402521:	b8 63 36 40 00       	mov    $0x403663,%eax
  402526:	89 c6                	mov    %eax,%esi
  402528:	e8 33 eb ff ff       	callq  401060 <strcpy@plt>
  40252d:	8b 7d c4             	mov    -0x3c(%rbp),%edi
  402530:	48 89 85 c0 5e ff ff 	mov    %rax,-0xa140(%rbp)
  402537:	e8 e4 eb ff ff       	callq  401120 <close@plt>
  40253c:	c7 45 fc ff ff ff ff 	movl   $0xffffffff,-0x4(%rbp)
  402543:	89 85 bc 5e ff ff    	mov    %eax,-0xa144(%rbp)
  402549:	e9 51 00 00 00       	jmpq   40259f <submitr+0x52f>
  40254e:	48 8d b5 80 bf ff ff 	lea    -0x4080(%rbp),%rsi
  402555:	48 8b 7d 10          	mov    0x10(%rbp),%rdi
  402559:	e8 02 eb ff ff       	callq  401060 <strcpy@plt>
  40255e:	8b 7d c4             	mov    -0x3c(%rbp),%edi
  402561:	48 89 85 b0 5e ff ff 	mov    %rax,-0xa150(%rbp)
  402568:	e8 b3 eb ff ff       	callq  401120 <close@plt>
  40256d:	48 8b 7d 10          	mov    0x10(%rbp),%rdi
  402571:	b9 9b 36 40 00       	mov    $0x40369b,%ecx
  402576:	89 ce                	mov    %ecx,%esi
  402578:	89 85 ac 5e ff ff    	mov    %eax,-0xa154(%rbp)
  40257e:	e8 dd eb ff ff       	callq  401160 <strcmp@plt>
  402583:	83 f8 00             	cmp    $0x0,%eax
  402586:	0f 85 0c 00 00 00    	jne    402598 <submitr+0x528>
  40258c:	c7 45 fc 00 00 00 00 	movl   $0x0,-0x4(%rbp)
  402593:	e9 07 00 00 00       	jmpq   40259f <submitr+0x52f>
  402598:	c7 45 fc ff ff ff ff 	movl   $0xffffffff,-0x4(%rbp)
  40259f:	8b 45 fc             	mov    -0x4(%rbp),%eax
  4025a2:	48 81 c4 60 a1 00 00 	add    $0xa160,%rsp
  4025a9:	5d                   	pop    %rbp
  4025aa:	c3                   	retq   
  4025ab:	0f 1f 44 00 00       	nopl   0x0(%rax,%rax,1)

00000000004025b0 <urlencode>:
  4025b0:	55                   	push   %rbp
  4025b1:	48 89 e5             	mov    %rsp,%rbp
  4025b4:	48 83 ec 30          	sub    $0x30,%rsp
  4025b8:	48 89 7d f0          	mov    %rdi,-0x10(%rbp)
  4025bc:	48 89 75 e8          	mov    %rsi,-0x18(%rbp)
  4025c0:	48 8b 7d f0          	mov    -0x10(%rbp),%rdi
  4025c4:	e8 e7 ea ff ff       	callq  4010b0 <strlen@plt>
  4025c9:	89 c1                	mov    %eax,%ecx
  4025cb:	89 4d e4             	mov    %ecx,-0x1c(%rbp)
  4025ce:	8b 45 e4             	mov    -0x1c(%rbp),%eax
  4025d1:	89 c1                	mov    %eax,%ecx
  4025d3:	83 c1 ff             	add    $0xffffffff,%ecx
  4025d6:	89 4d e4             	mov    %ecx,-0x1c(%rbp)
  4025d9:	83 f8 00             	cmp    $0x0,%eax
  4025dc:	0f 84 ae 01 00 00    	je     402790 <urlencode+0x1e0>
  4025e2:	48 8b 45 f0          	mov    -0x10(%rbp),%rax
  4025e6:	0f b6 08             	movzbl (%rax),%ecx
  4025e9:	83 f9 2a             	cmp    $0x2a,%ecx
  4025ec:	0f 84 9c 00 00 00    	je     40268e <urlencode+0xde>
  4025f2:	48 8b 45 f0          	mov    -0x10(%rbp),%rax
  4025f6:	0f b6 08             	movzbl (%rax),%ecx
  4025f9:	83 f9 2d             	cmp    $0x2d,%ecx
  4025fc:	0f 84 8c 00 00 00    	je     40268e <urlencode+0xde>
  402602:	48 8b 45 f0          	mov    -0x10(%rbp),%rax
  402606:	0f b6 08             	movzbl (%rax),%ecx
  402609:	83 f9 2e             	cmp    $0x2e,%ecx
  40260c:	0f 84 7c 00 00 00    	je     40268e <urlencode+0xde>
  402612:	48 8b 45 f0          	mov    -0x10(%rbp),%rax
  402616:	0f b6 08             	movzbl (%rax),%ecx
  402619:	83 f9 5f             	cmp    $0x5f,%ecx
  40261c:	0f 84 6c 00 00 00    	je     40268e <urlencode+0xde>
  402622:	48 8b 45 f0          	mov    -0x10(%rbp),%rax
  402626:	0f b6 08             	movzbl (%rax),%ecx
  402629:	ba 30 00 00 00       	mov    $0x30,%edx
  40262e:	39 ca                	cmp    %ecx,%edx
  402630:	0f 8f 10 00 00 00    	jg     402646 <urlencode+0x96>
  402636:	48 8b 45 f0          	mov    -0x10(%rbp),%rax
  40263a:	0f b6 08             	movzbl (%rax),%ecx
  40263d:	83 f9 39             	cmp    $0x39,%ecx
  402640:	0f 8e 48 00 00 00    	jle    40268e <urlencode+0xde>
  402646:	48 8b 45 f0          	mov    -0x10(%rbp),%rax
  40264a:	0f b6 08             	movzbl (%rax),%ecx
  40264d:	ba 41 00 00 00       	mov    $0x41,%edx
  402652:	39 ca                	cmp    %ecx,%edx
  402654:	0f 8f 10 00 00 00    	jg     40266a <urlencode+0xba>
  40265a:	48 8b 45 f0          	mov    -0x10(%rbp),%rax
  40265e:	0f b6 08             	movzbl (%rax),%ecx
  402661:	83 f9 5a             	cmp    $0x5a,%ecx
  402664:	0f 8e 24 00 00 00    	jle    40268e <urlencode+0xde>
  40266a:	48 8b 45 f0          	mov    -0x10(%rbp),%rax
  40266e:	0f b6 08             	movzbl (%rax),%ecx
  402671:	ba 61 00 00 00       	mov    $0x61,%edx
  402676:	39 ca                	cmp    %ecx,%edx
  402678:	0f 8f 2c 00 00 00    	jg     4026aa <urlencode+0xfa>
  40267e:	48 8b 45 f0          	mov    -0x10(%rbp),%rax
  402682:	0f b6 08             	movzbl (%rax),%ecx
  402685:	83 f9 7a             	cmp    $0x7a,%ecx
  402688:	0f 8f 1c 00 00 00    	jg     4026aa <urlencode+0xfa>
  40268e:	48 8b 45 f0          	mov    -0x10(%rbp),%rax
  402692:	8a 08                	mov    (%rax),%cl
  402694:	48 8b 45 e8          	mov    -0x18(%rbp),%rax
  402698:	48 89 c2             	mov    %rax,%rdx
  40269b:	48 83 c2 01          	add    $0x1,%rdx
  40269f:	48 89 55 e8          	mov    %rdx,-0x18(%rbp)
  4026a3:	88 08                	mov    %cl,(%rax)
  4026a5:	e9 d0 00 00 00       	jmpq   40277a <urlencode+0x1ca>
  4026aa:	48 8b 45 f0          	mov    -0x10(%rbp),%rax
  4026ae:	0f b6 08             	movzbl (%rax),%ecx
  4026b1:	83 f9 20             	cmp    $0x20,%ecx
  4026b4:	0f 85 17 00 00 00    	jne    4026d1 <urlencode+0x121>
  4026ba:	48 8b 45 e8          	mov    -0x18(%rbp),%rax
  4026be:	48 89 c1             	mov    %rax,%rcx
  4026c1:	48 83 c1 01          	add    $0x1,%rcx
  4026c5:	48 89 4d e8          	mov    %rcx,-0x18(%rbp)
  4026c9:	c6 00 2b             	movb   $0x2b,(%rax)
  4026cc:	e9 a4 00 00 00       	jmpq   402775 <urlencode+0x1c5>
  4026d1:	48 8b 45 f0          	mov    -0x10(%rbp),%rax
  4026d5:	0f b6 08             	movzbl (%rax),%ecx
  4026d8:	83 f9 1f             	cmp    $0x1f,%ecx
  4026db:	0f 8e 13 00 00 00    	jle    4026f4 <urlencode+0x144>
  4026e1:	48 8b 45 f0          	mov    -0x10(%rbp),%rax
  4026e5:	0f b6 08             	movzbl (%rax),%ecx
  4026e8:	81 f9 80 00 00 00    	cmp    $0x80,%ecx
  4026ee:	0f 8c 10 00 00 00    	jl     402704 <urlencode+0x154>
  4026f4:	48 8b 45 f0          	mov    -0x10(%rbp),%rax
  4026f8:	0f b6 08             	movzbl (%rax),%ecx
  4026fb:	83 f9 09             	cmp    $0x9,%ecx
  4026fe:	0f 85 60 00 00 00    	jne    402764 <urlencode+0x1b4>
  402704:	48 8d 7d dc          	lea    -0x24(%rbp),%rdi
  402708:	48 8b 45 f0          	mov    -0x10(%rbp),%rax
  40270c:	0f b6 10             	movzbl (%rax),%edx
  40270f:	48 be 03 37 40 00 00 	movabs $0x403703,%rsi
  402716:	00 00 00 
  402719:	b0 00                	mov    $0x0,%al
  40271b:	e8 20 eb ff ff       	callq  401240 <sprintf@plt>
  402720:	8a 4d dc             	mov    -0x24(%rbp),%cl
  402723:	48 8b 75 e8          	mov    -0x18(%rbp),%rsi
  402727:	48 89 f7             	mov    %rsi,%rdi
  40272a:	48 83 c7 01          	add    $0x1,%rdi
  40272e:	48 89 7d e8          	mov    %rdi,-0x18(%rbp)
  402732:	88 0e                	mov    %cl,(%rsi)
  402734:	8a 4d dd             	mov    -0x23(%rbp),%cl
  402737:	48 8b 75 e8          	mov    -0x18(%rbp),%rsi
  40273b:	48 89 f7             	mov    %rsi,%rdi
  40273e:	48 83 c7 01          	add    $0x1,%rdi
  402742:	48 89 7d e8          	mov    %rdi,-0x18(%rbp)
  402746:	88 0e                	mov    %cl,(%rsi)
  402748:	8a 4d de             	mov    -0x22(%rbp),%cl
  40274b:	48 8b 75 e8          	mov    -0x18(%rbp),%rsi
  40274f:	48 89 f7             	mov    %rsi,%rdi
  402752:	48 83 c7 01          	add    $0x1,%rdi
  402756:	48 89 7d e8          	mov    %rdi,-0x18(%rbp)
  40275a:	88 0e                	mov    %cl,(%rsi)
  40275c:	89 45 d8             	mov    %eax,-0x28(%rbp)
  40275f:	e9 0c 00 00 00       	jmpq   402770 <urlencode+0x1c0>
  402764:	c7 45 fc ff ff ff ff 	movl   $0xffffffff,-0x4(%rbp)
  40276b:	e9 27 00 00 00       	jmpq   402797 <urlencode+0x1e7>
  402770:	e9 00 00 00 00       	jmpq   402775 <urlencode+0x1c5>
  402775:	e9 00 00 00 00       	jmpq   40277a <urlencode+0x1ca>
  40277a:	e9 00 00 00 00       	jmpq   40277f <urlencode+0x1cf>
  40277f:	48 8b 45 f0          	mov    -0x10(%rbp),%rax
  402783:	48 83 c0 01          	add    $0x1,%rax
  402787:	48 89 45 f0          	mov    %rax,-0x10(%rbp)
  40278b:	e9 3e fe ff ff       	jmpq   4025ce <urlencode+0x1e>
  402790:	c7 45 fc 00 00 00 00 	movl   $0x0,-0x4(%rbp)
  402797:	8b 45 fc             	mov    -0x4(%rbp),%eax
  40279a:	48 83 c4 30          	add    $0x30,%rsp
  40279e:	5d                   	pop    %rbp
  40279f:	c3                   	retq   

00000000004027a0 <rio_writen>:
  4027a0:	55                   	push   %rbp
  4027a1:	48 89 e5             	mov    %rsp,%rbp
  4027a4:	48 83 ec 40          	sub    $0x40,%rsp
  4027a8:	89 7d f4             	mov    %edi,-0xc(%rbp)
  4027ab:	48 89 75 e8          	mov    %rsi,-0x18(%rbp)
  4027af:	48 89 55 e0          	mov    %rdx,-0x20(%rbp)
  4027b3:	48 8b 55 e0          	mov    -0x20(%rbp),%rdx
  4027b7:	48 89 55 d8          	mov    %rdx,-0x28(%rbp)
  4027bb:	48 8b 55 e8          	mov    -0x18(%rbp),%rdx
  4027bf:	48 89 55 c8          	mov    %rdx,-0x38(%rbp)
  4027c3:	48 83 7d d8 00       	cmpq   $0x0,-0x28(%rbp)
  4027c8:	0f 86 6b 00 00 00    	jbe    402839 <rio_writen+0x99>
  4027ce:	8b 7d f4             	mov    -0xc(%rbp),%edi
  4027d1:	48 8b 75 c8          	mov    -0x38(%rbp),%rsi
  4027d5:	48 8b 55 d8          	mov    -0x28(%rbp),%rdx
  4027d9:	e8 b2 e8 ff ff       	callq  401090 <write@plt>
  4027de:	48 89 45 d0          	mov    %rax,-0x30(%rbp)
  4027e2:	48 83 f8 00          	cmp    $0x0,%rax
  4027e6:	0f 8f 2d 00 00 00    	jg     402819 <rio_writen+0x79>
  4027ec:	e8 4f e8 ff ff       	callq  401040 <__errno_location@plt>
  4027f1:	83 38 04             	cmpl   $0x4,(%rax)
  4027f4:	0f 85 0d 00 00 00    	jne    402807 <rio_writen+0x67>
  4027fa:	48 c7 45 d0 00 00 00 	movq   $0x0,-0x30(%rbp)
  402801:	00 
  402802:	e9 0d 00 00 00       	jmpq   402814 <rio_writen+0x74>
  402807:	48 c7 45 f8 ff ff ff 	movq   $0xffffffffffffffff,-0x8(%rbp)
  40280e:	ff 
  40280f:	e9 2d 00 00 00       	jmpq   402841 <rio_writen+0xa1>
  402814:	e9 00 00 00 00       	jmpq   402819 <rio_writen+0x79>
  402819:	48 8b 45 d0          	mov    -0x30(%rbp),%rax
  40281d:	48 8b 4d d8          	mov    -0x28(%rbp),%rcx
  402821:	48 29 c1             	sub    %rax,%rcx
  402824:	48 89 4d d8          	mov    %rcx,-0x28(%rbp)
  402828:	48 8b 45 d0          	mov    -0x30(%rbp),%rax
  40282c:	48 03 45 c8          	add    -0x38(%rbp),%rax
  402830:	48 89 45 c8          	mov    %rax,-0x38(%rbp)
  402834:	e9 8a ff ff ff       	jmpq   4027c3 <rio_writen+0x23>
  402839:	48 8b 45 e0          	mov    -0x20(%rbp),%rax
  40283d:	48 89 45 f8          	mov    %rax,-0x8(%rbp)
  402841:	48 8b 45 f8          	mov    -0x8(%rbp),%rax
  402845:	48 83 c4 40          	add    $0x40,%rsp
  402849:	5d                   	pop    %rbp
  40284a:	c3                   	retq   
  40284b:	0f 1f 44 00 00       	nopl   0x0(%rax,%rax,1)

0000000000402850 <rio_readinitb>:
  402850:	55                   	push   %rbp
  402851:	48 89 e5             	mov    %rsp,%rbp
  402854:	48 89 7d f8          	mov    %rdi,-0x8(%rbp)
  402858:	89 75 f4             	mov    %esi,-0xc(%rbp)
  40285b:	8b 75 f4             	mov    -0xc(%rbp),%esi
  40285e:	48 8b 7d f8          	mov    -0x8(%rbp),%rdi
  402862:	89 37                	mov    %esi,(%rdi)
  402864:	48 8b 7d f8          	mov    -0x8(%rbp),%rdi
  402868:	c7 47 04 00 00 00 00 	movl   $0x0,0x4(%rdi)
  40286f:	48 8b 7d f8          	mov    -0x8(%rbp),%rdi
  402873:	48 83 c7 10          	add    $0x10,%rdi
  402877:	48 8b 45 f8          	mov    -0x8(%rbp),%rax
  40287b:	48 89 78 08          	mov    %rdi,0x8(%rax)
  40287f:	5d                   	pop    %rbp
  402880:	c3                   	retq   
  402881:	66 2e 0f 1f 84 00 00 	nopw   %cs:0x0(%rax,%rax,1)
  402888:	00 00 00 
  40288b:	0f 1f 44 00 00       	nopl   0x0(%rax,%rax,1)

0000000000402890 <rio_readlineb>:
  402890:	55                   	push   %rbp
  402891:	48 89 e5             	mov    %rsp,%rbp
  402894:	48 83 ec 40          	sub    $0x40,%rsp
  402898:	48 89 7d f0          	mov    %rdi,-0x10(%rbp)
  40289c:	48 89 75 e8          	mov    %rsi,-0x18(%rbp)
  4028a0:	48 89 55 e0          	mov    %rdx,-0x20(%rbp)
  4028a4:	48 8b 55 e8          	mov    -0x18(%rbp),%rdx
  4028a8:	48 89 55 c8          	mov    %rdx,-0x38(%rbp)
  4028ac:	c7 45 dc 01 00 00 00 	movl   $0x1,-0x24(%rbp)
  4028b3:	48 63 45 dc          	movslq -0x24(%rbp),%rax
  4028b7:	48 3b 45 e0          	cmp    -0x20(%rbp),%rax
  4028bb:	0f 83 93 00 00 00    	jae    402954 <rio_readlineb+0xc4>
  4028c1:	b8 01 00 00 00       	mov    $0x1,%eax
  4028c6:	89 c2                	mov    %eax,%edx
  4028c8:	48 8b 7d f0          	mov    -0x10(%rbp),%rdi
  4028cc:	48 8d 75 d7          	lea    -0x29(%rbp),%rsi
  4028d0:	e8 bb 03 00 00       	callq  402c90 <rio_read>
  4028d5:	89 c1                	mov    %eax,%ecx
  4028d7:	89 4d d8             	mov    %ecx,-0x28(%rbp)
  4028da:	83 f9 01             	cmp    $0x1,%ecx
  4028dd:	0f 85 2b 00 00 00    	jne    40290e <rio_readlineb+0x7e>
  4028e3:	8a 45 d7             	mov    -0x29(%rbp),%al
  4028e6:	48 8b 4d c8          	mov    -0x38(%rbp),%rcx
  4028ea:	48 89 ca             	mov    %rcx,%rdx
  4028ed:	48 83 c2 01          	add    $0x1,%rdx
  4028f1:	48 89 55 c8          	mov    %rdx,-0x38(%rbp)
  4028f5:	88 01                	mov    %al,(%rcx)
  4028f7:	0f be 75 d7          	movsbl -0x29(%rbp),%esi
  4028fb:	83 fe 0a             	cmp    $0xa,%esi
  4028fe:	0f 85 05 00 00 00    	jne    402909 <rio_readlineb+0x79>
  402904:	e9 4b 00 00 00       	jmpq   402954 <rio_readlineb+0xc4>
  402909:	e9 33 00 00 00       	jmpq   402941 <rio_readlineb+0xb1>
  40290e:	83 7d d8 00          	cmpl   $0x0,-0x28(%rbp)
  402912:	0f 85 1c 00 00 00    	jne    402934 <rio_readlineb+0xa4>
  402918:	83 7d dc 01          	cmpl   $0x1,-0x24(%rbp)
  40291c:	0f 85 0d 00 00 00    	jne    40292f <rio_readlineb+0x9f>
  402922:	48 c7 45 f8 00 00 00 	movq   $0x0,-0x8(%rbp)
  402929:	00 
  40292a:	e9 34 00 00 00       	jmpq   402963 <rio_readlineb+0xd3>
  40292f:	e9 20 00 00 00       	jmpq   402954 <rio_readlineb+0xc4>
  402934:	48 c7 45 f8 ff ff ff 	movq   $0xffffffffffffffff,-0x8(%rbp)
  40293b:	ff 
  40293c:	e9 22 00 00 00       	jmpq   402963 <rio_readlineb+0xd3>
  402941:	e9 00 00 00 00       	jmpq   402946 <rio_readlineb+0xb6>
  402946:	8b 45 dc             	mov    -0x24(%rbp),%eax
  402949:	83 c0 01             	add    $0x1,%eax
  40294c:	89 45 dc             	mov    %eax,-0x24(%rbp)
  40294f:	e9 5f ff ff ff       	jmpq   4028b3 <rio_readlineb+0x23>
  402954:	48 8b 45 c8          	mov    -0x38(%rbp),%rax
  402958:	c6 00 00             	movb   $0x0,(%rax)
  40295b:	48 63 45 dc          	movslq -0x24(%rbp),%rax
  40295f:	48 89 45 f8          	mov    %rax,-0x8(%rbp)
  402963:	48 8b 45 f8          	mov    -0x8(%rbp),%rax
  402967:	48 83 c4 40          	add    $0x40,%rsp
  40296b:	5d                   	pop    %rbp
  40296c:	c3                   	retq   
  40296d:	0f 1f 00             	nopl   (%rax)

0000000000402970 <init_timeout>:
  402970:	55                   	push   %rbp
  402971:	48 89 e5             	mov    %rsp,%rbp
  402974:	48 83 ec 20          	sub    $0x20,%rsp
  402978:	89 7d fc             	mov    %edi,-0x4(%rbp)
  40297b:	83 7d fc 00          	cmpl   $0x0,-0x4(%rbp)
  40297f:	0f 85 05 00 00 00    	jne    40298a <init_timeout+0x1a>
  402985:	e9 34 00 00 00       	jmpq   4029be <init_timeout+0x4e>
  40298a:	83 7d fc 00          	cmpl   $0x0,-0x4(%rbp)
  40298e:	0f 8d 07 00 00 00    	jge    40299b <init_timeout+0x2b>
  402994:	c7 45 fc 05 00 00 00 	movl   $0x5,-0x4(%rbp)
  40299b:	bf 0e 00 00 00       	mov    $0xe,%edi
  4029a0:	48 be 40 20 40 00 00 	movabs $0x402040,%rsi
  4029a7:	00 00 00 
  4029aa:	e8 c1 e7 ff ff       	callq  401170 <signal@plt>
  4029af:	8b 7d fc             	mov    -0x4(%rbp),%edi
  4029b2:	48 89 45 f0          	mov    %rax,-0x10(%rbp)
  4029b6:	e8 55 e7 ff ff       	callq  401110 <alarm@plt>
  4029bb:	89 45 ec             	mov    %eax,-0x14(%rbp)
  4029be:	48 83 c4 20          	add    $0x20,%rsp
  4029c2:	5d                   	pop    %rbp
  4029c3:	c3                   	retq   
  4029c4:	66 2e 0f 1f 84 00 00 	nopw   %cs:0x0(%rax,%rax,1)
  4029cb:	00 00 00 
  4029ce:	66 90                	xchg   %ax,%ax

00000000004029d0 <init_driver>:
  4029d0:	55                   	push   %rbp
  4029d1:	48 89 e5             	mov    %rsp,%rbp
  4029d4:	48 81 ec 90 00 00 00 	sub    $0x90,%rsp
  4029db:	b8 01 00 00 00       	mov    $0x1,%eax
  4029e0:	89 c6                	mov    %eax,%esi
  4029e2:	48 89 7d f0          	mov    %rdi,-0x10(%rbp)
  4029e6:	48 bf 9e 36 40 00 00 	movabs $0x40369e,%rdi
  4029ed:	00 00 00 
  4029f0:	48 89 7d c8          	mov    %rdi,-0x38(%rbp)
  4029f4:	c7 45 c4 26 47 00 00 	movl   $0x4726,-0x3c(%rbp)
  4029fb:	bf 0d 00 00 00       	mov    $0xd,%edi
  402a00:	e8 6b e7 ff ff       	callq  401170 <signal@plt>
  402a05:	bf 01 00 00 00       	mov    $0x1,%edi
  402a0a:	89 fe                	mov    %edi,%esi
  402a0c:	bf 1d 00 00 00       	mov    $0x1d,%edi
  402a11:	48 89 45 b8          	mov    %rax,-0x48(%rbp)
  402a15:	e8 56 e7 ff ff       	callq  401170 <signal@plt>
  402a1a:	bf 01 00 00 00       	mov    $0x1,%edi
  402a1f:	89 fe                	mov    %edi,%esi
  402a21:	bf 1d 00 00 00       	mov    $0x1d,%edi
  402a26:	48 89 45 b0          	mov    %rax,-0x50(%rbp)
  402a2a:	e8 41 e7 ff ff       	callq  401170 <signal@plt>
  402a2f:	31 d2                	xor    %edx,%edx
  402a31:	bf 02 00 00 00       	mov    $0x2,%edi
  402a36:	be 01 00 00 00       	mov    $0x1,%esi
  402a3b:	48 89 45 a8          	mov    %rax,-0x58(%rbp)
  402a3f:	e8 4c e8 ff ff       	callq  401290 <socket@plt>
  402a44:	89 45 ec             	mov    %eax,-0x14(%rbp)
  402a47:	83 f8 00             	cmp    $0x0,%eax
  402a4a:	0f 8d 20 00 00 00    	jge    402a70 <init_driver+0xa0>
  402a50:	48 8b 7d f0          	mov    -0x10(%rbp),%rdi
  402a54:	b8 55 34 40 00       	mov    $0x403455,%eax
  402a59:	89 c6                	mov    %eax,%esi
  402a5b:	e8 00 e6 ff ff       	callq  401060 <strcpy@plt>
  402a60:	c7 45 fc ff ff ff ff 	movl   $0xffffffff,-0x4(%rbp)
  402a67:	48 89 45 a0          	mov    %rax,-0x60(%rbp)
  402a6b:	e9 1c 01 00 00       	jmpq   402b8c <init_driver+0x1bc>
  402a70:	48 8b 7d c8          	mov    -0x38(%rbp),%rdi
  402a74:	e8 07 e7 ff ff       	callq  401180 <gethostbyname@plt>
  402a79:	48 89 45 e0          	mov    %rax,-0x20(%rbp)
  402a7d:	48 83 f8 00          	cmp    $0x0,%rax
  402a81:	0f 85 33 00 00 00    	jne    402aba <init_driver+0xea>
  402a87:	48 8b 7d f0          	mov    -0x10(%rbp),%rdi
  402a8b:	48 8b 55 c8          	mov    -0x38(%rbp),%rdx
  402a8f:	48 be 7b 34 40 00 00 	movabs $0x40347b,%rsi
  402a96:	00 00 00 
  402a99:	b0 00                	mov    $0x0,%al
  402a9b:	e8 a0 e7 ff ff       	callq  401240 <sprintf@plt>
  402aa0:	8b 7d ec             	mov    -0x14(%rbp),%edi
  402aa3:	89 45 9c             	mov    %eax,-0x64(%rbp)
  402aa6:	e8 75 e6 ff ff       	callq  401120 <close@plt>
  402aab:	c7 45 fc ff ff ff ff 	movl   $0xffffffff,-0x4(%rbp)
  402ab2:	89 45 98             	mov    %eax,-0x68(%rbp)
  402ab5:	e9 d2 00 00 00       	jmpq   402b8c <init_driver+0x1bc>
  402aba:	31 f6                	xor    %esi,%esi
  402abc:	b8 10 00 00 00       	mov    $0x10,%eax
  402ac1:	89 c2                	mov    %eax,%edx
  402ac3:	48 8d 4d d0          	lea    -0x30(%rbp),%rcx
  402ac7:	48 89 cf             	mov    %rcx,%rdi
  402aca:	48 89 4d 90          	mov    %rcx,-0x70(%rbp)
  402ace:	e8 2d e6 ff ff       	callq  401100 <memset@plt>
  402ad3:	66 c7 45 d0 02 00    	movw   $0x2,-0x30(%rbp)
  402ad9:	48 8b 4d e0          	mov    -0x20(%rbp),%rcx
  402add:	48 8b 49 18          	mov    0x18(%rcx),%rcx
  402ae1:	48 8b 39             	mov    (%rcx),%rdi
  402ae4:	48 8b 4d 90          	mov    -0x70(%rbp),%rcx
  402ae8:	48 83 c1 04          	add    $0x4,%rcx
  402aec:	48 8b 55 e0          	mov    -0x20(%rbp),%rdx
  402af0:	48 63 52 14          	movslq 0x14(%rdx),%rdx
  402af4:	48 89 ce             	mov    %rcx,%rsi
  402af7:	e8 04 e7 ff ff       	callq  401200 <bcopy@plt>
  402afc:	8b 45 c4             	mov    -0x3c(%rbp),%eax
  402aff:	66 41 89 c0          	mov    %ax,%r8w
  402b03:	41 0f b7 f8          	movzwl %r8w,%edi
  402b07:	e8 c4 e5 ff ff       	callq  4010d0 <htons@plt>
  402b0c:	66 89 45 d2          	mov    %ax,-0x2e(%rbp)
  402b10:	8b 7d ec             	mov    -0x14(%rbp),%edi
  402b13:	48 8d 4d d0          	lea    -0x30(%rbp),%rcx
  402b17:	48 89 ce             	mov    %rcx,%rsi
  402b1a:	ba 10 00 00 00       	mov    $0x10,%edx
  402b1f:	e8 3c e7 ff ff       	callq  401260 <connect@plt>
  402b24:	83 f8 00             	cmp    $0x0,%eax
  402b27:	0f 8d 36 00 00 00    	jge    402b63 <init_driver+0x193>
  402b2d:	48 8b 7d f0          	mov    -0x10(%rbp),%rdi
  402b31:	48 8b 55 c8          	mov    -0x38(%rbp),%rdx
  402b35:	8b 4d c4             	mov    -0x3c(%rbp),%ecx
  402b38:	48 be b6 36 40 00 00 	movabs $0x4036b6,%rsi
  402b3f:	00 00 00 
  402b42:	b0 00                	mov    $0x0,%al
  402b44:	e8 f7 e6 ff ff       	callq  401240 <sprintf@plt>
  402b49:	8b 7d ec             	mov    -0x14(%rbp),%edi
  402b4c:	89 45 8c             	mov    %eax,-0x74(%rbp)
  402b4f:	e8 cc e5 ff ff       	callq  401120 <close@plt>
  402b54:	c7 45 fc ff ff ff ff 	movl   $0xffffffff,-0x4(%rbp)
  402b5b:	89 45 88             	mov    %eax,-0x78(%rbp)
  402b5e:	e9 29 00 00 00       	jmpq   402b8c <init_driver+0x1bc>
  402b63:	8b 7d ec             	mov    -0x14(%rbp),%edi
  402b66:	e8 b5 e5 ff ff       	callq  401120 <close@plt>
  402b6b:	48 8b 7d f0          	mov    -0x10(%rbp),%rdi
  402b6f:	b9 9b 36 40 00       	mov    $0x40369b,%ecx
  402b74:	89 ce                	mov    %ecx,%esi
  402b76:	89 45 84             	mov    %eax,-0x7c(%rbp)
  402b79:	e8 e2 e4 ff ff       	callq  401060 <strcpy@plt>
  402b7e:	c7 45 fc 00 00 00 00 	movl   $0x0,-0x4(%rbp)
  402b85:	48 89 85 78 ff ff ff 	mov    %rax,-0x88(%rbp)
  402b8c:	8b 45 fc             	mov    -0x4(%rbp),%eax
  402b8f:	48 81 c4 90 00 00 00 	add    $0x90,%rsp
  402b96:	5d                   	pop    %rbp
  402b97:	c3                   	retq   
  402b98:	0f 1f 84 00 00 00 00 	nopl   0x0(%rax,%rax,1)
  402b9f:	00 

0000000000402ba0 <driver_post>:
  402ba0:	55                   	push   %rbp
  402ba1:	48 89 e5             	mov    %rsp,%rbp
  402ba4:	48 83 ec 50          	sub    $0x50,%rsp
  402ba8:	48 89 7d f0          	mov    %rdi,-0x10(%rbp)
  402bac:	48 89 75 e8          	mov    %rsi,-0x18(%rbp)
  402bb0:	89 55 e4             	mov    %edx,-0x1c(%rbp)
  402bb3:	48 89 4d d8          	mov    %rcx,-0x28(%rbp)
  402bb7:	83 7d e4 00          	cmpl   $0x0,-0x1c(%rbp)
  402bbb:	0f 84 38 00 00 00    	je     402bf9 <driver_post+0x59>
  402bc1:	48 8b 75 e8          	mov    -0x18(%rbp),%rsi
  402bc5:	48 bf df 36 40 00 00 	movabs $0x4036df,%rdi
  402bcc:	00 00 00 
  402bcf:	b0 00                	mov    $0x0,%al
  402bd1:	e8 0a e5 ff ff       	callq  4010e0 <printf@plt>
  402bd6:	48 8b 7d d8          	mov    -0x28(%rbp),%rdi
  402bda:	b9 9b 36 40 00       	mov    $0x40369b,%ecx
  402bdf:	89 ce                	mov    %ecx,%esi
  402be1:	89 45 d0             	mov    %eax,-0x30(%rbp)
  402be4:	e8 77 e4 ff ff       	callq  401060 <strcpy@plt>
  402be9:	c7 45 fc 00 00 00 00 	movl   $0x0,-0x4(%rbp)
  402bf0:	48 89 45 c8          	mov    %rax,-0x38(%rbp)
  402bf4:	e9 85 00 00 00       	jmpq   402c7e <driver_post+0xde>
  402bf9:	48 83 7d f0 00       	cmpq   $0x0,-0x10(%rbp)
  402bfe:	0f 84 5f 00 00 00    	je     402c63 <driver_post+0xc3>
  402c04:	48 8b 7d f0          	mov    -0x10(%rbp),%rdi
  402c08:	b8 91 35 40 00       	mov    $0x403591,%eax
  402c0d:	89 c6                	mov    %eax,%esi
  402c0f:	e8 4c e5 ff ff       	callq  401160 <strcmp@plt>
  402c14:	83 f8 00             	cmp    $0x0,%eax
  402c17:	0f 84 46 00 00 00    	je     402c63 <driver_post+0xc3>
  402c1d:	48 8b 4d f0          	mov    -0x10(%rbp),%rcx
  402c21:	4c 8b 4d e8          	mov    -0x18(%rbp),%r9
  402c25:	48 8b 45 d8          	mov    -0x28(%rbp),%rax
  402c29:	48 bf 9e 36 40 00 00 	movabs $0x40369e,%rdi
  402c30:	00 00 00 
  402c33:	be 26 47 00 00       	mov    $0x4726,%esi
  402c38:	48 ba f6 36 40 00 00 	movabs $0x4036f6,%rdx
  402c3f:	00 00 00 
  402c42:	49 b8 fc 36 40 00 00 	movabs $0x4036fc,%r8
  402c49:	00 00 00 
  402c4c:	48 89 04 24          	mov    %rax,(%rsp)
  402c50:	e8 1b f4 ff ff       	callq  402070 <submitr>
  402c55:	89 45 d4             	mov    %eax,-0x2c(%rbp)
  402c58:	8b 45 d4             	mov    -0x2c(%rbp),%eax
  402c5b:	89 45 fc             	mov    %eax,-0x4(%rbp)
  402c5e:	e9 1b 00 00 00       	jmpq   402c7e <driver_post+0xde>
  402c63:	48 8b 7d d8          	mov    -0x28(%rbp),%rdi
  402c67:	b8 9b 36 40 00       	mov    $0x40369b,%eax
  402c6c:	89 c6                	mov    %eax,%esi
  402c6e:	e8 ed e3 ff ff       	callq  401060 <strcpy@plt>
  402c73:	c7 45 fc 00 00 00 00 	movl   $0x0,-0x4(%rbp)
  402c7a:	48 89 45 c0          	mov    %rax,-0x40(%rbp)
  402c7e:	8b 45 fc             	mov    -0x4(%rbp),%eax
  402c81:	48 83 c4 50          	add    $0x50,%rsp
  402c85:	5d                   	pop    %rbp
  402c86:	c3                   	retq   
  402c87:	66 0f 1f 84 00 00 00 	nopw   0x0(%rax,%rax,1)
  402c8e:	00 00 

0000000000402c90 <rio_read>:
  402c90:	55                   	push   %rbp
  402c91:	48 89 e5             	mov    %rsp,%rbp
  402c94:	48 83 ec 30          	sub    $0x30,%rsp
  402c98:	48 89 7d f0          	mov    %rdi,-0x10(%rbp)
  402c9c:	48 89 75 e8          	mov    %rsi,-0x18(%rbp)
  402ca0:	48 89 55 e0          	mov    %rdx,-0x20(%rbp)
  402ca4:	48 8b 45 f0          	mov    -0x10(%rbp),%rax
  402ca8:	83 78 04 00          	cmpl   $0x0,0x4(%rax)
  402cac:	0f 8f 89 00 00 00    	jg     402d3b <rio_read+0xab>
  402cb2:	b8 00 20 00 00       	mov    $0x2000,%eax
  402cb7:	89 c2                	mov    %eax,%edx
  402cb9:	48 8b 4d f0          	mov    -0x10(%rbp),%rcx
  402cbd:	8b 39                	mov    (%rcx),%edi
  402cbf:	48 8b 4d f0          	mov    -0x10(%rbp),%rcx
  402cc3:	48 83 c1 10          	add    $0x10,%rcx
  402cc7:	48 89 ce             	mov    %rcx,%rsi
  402cca:	e8 61 e4 ff ff       	callq  401130 <read@plt>
  402ccf:	89 c7                	mov    %eax,%edi
  402cd1:	48 8b 45 f0          	mov    -0x10(%rbp),%rax
  402cd5:	89 78 04             	mov    %edi,0x4(%rax)
  402cd8:	48 8b 45 f0          	mov    -0x10(%rbp),%rax
  402cdc:	83 78 04 00          	cmpl   $0x0,0x4(%rax)
  402ce0:	0f 8d 20 00 00 00    	jge    402d06 <rio_read+0x76>
  402ce6:	e8 55 e3 ff ff       	callq  401040 <__errno_location@plt>
  402ceb:	83 38 04             	cmpl   $0x4,(%rax)
  402cee:	0f 84 0d 00 00 00    	je     402d01 <rio_read+0x71>
  402cf4:	48 c7 45 f8 ff ff ff 	movq   $0xffffffffffffffff,-0x8(%rbp)
  402cfb:	ff 
  402cfc:	e9 a3 00 00 00       	jmpq   402da4 <rio_read+0x114>
  402d01:	e9 30 00 00 00       	jmpq   402d36 <rio_read+0xa6>
  402d06:	48 8b 45 f0          	mov    -0x10(%rbp),%rax
  402d0a:	83 78 04 00          	cmpl   $0x0,0x4(%rax)
  402d0e:	0f 85 0d 00 00 00    	jne    402d21 <rio_read+0x91>
  402d14:	48 c7 45 f8 00 00 00 	movq   $0x0,-0x8(%rbp)
  402d1b:	00 
  402d1c:	e9 83 00 00 00       	jmpq   402da4 <rio_read+0x114>
  402d21:	48 8b 45 f0          	mov    -0x10(%rbp),%rax
  402d25:	48 83 c0 10          	add    $0x10,%rax
  402d29:	48 8b 4d f0          	mov    -0x10(%rbp),%rcx
  402d2d:	48 89 41 08          	mov    %rax,0x8(%rcx)
  402d31:	e9 00 00 00 00       	jmpq   402d36 <rio_read+0xa6>
  402d36:	e9 69 ff ff ff       	jmpq   402ca4 <rio_read+0x14>
  402d3b:	48 8b 45 e0          	mov    -0x20(%rbp),%rax
  402d3f:	89 c1                	mov    %eax,%ecx
  402d41:	89 4d dc             	mov    %ecx,-0x24(%rbp)
  402d44:	48 8b 45 f0          	mov    -0x10(%rbp),%rax
  402d48:	48 63 40 04          	movslq 0x4(%rax),%rax
  402d4c:	48 3b 45 e0          	cmp    -0x20(%rbp),%rax
  402d50:	0f 83 0a 00 00 00    	jae    402d60 <rio_read+0xd0>
  402d56:	48 8b 45 f0          	mov    -0x10(%rbp),%rax
  402d5a:	8b 48 04             	mov    0x4(%rax),%ecx
  402d5d:	89 4d dc             	mov    %ecx,-0x24(%rbp)
  402d60:	48 8b 7d e8          	mov    -0x18(%rbp),%rdi
  402d64:	48 8b 45 f0          	mov    -0x10(%rbp),%rax
  402d68:	48 8b 70 08          	mov    0x8(%rax),%rsi
  402d6c:	48 63 55 dc          	movslq -0x24(%rbp),%rdx
  402d70:	e8 2b e4 ff ff       	callq  4011a0 <memcpy@plt>
  402d75:	8b 4d dc             	mov    -0x24(%rbp),%ecx
  402d78:	48 8b 45 f0          	mov    -0x10(%rbp),%rax
  402d7c:	48 8b 50 08          	mov    0x8(%rax),%rdx
  402d80:	48 63 f1             	movslq %ecx,%rsi
  402d83:	48 01 f2             	add    %rsi,%rdx
  402d86:	48 89 50 08          	mov    %rdx,0x8(%rax)
  402d8a:	8b 4d dc             	mov    -0x24(%rbp),%ecx
  402d8d:	48 8b 45 f0          	mov    -0x10(%rbp),%rax
  402d91:	44 8b 40 04          	mov    0x4(%rax),%r8d
  402d95:	41 29 c8             	sub    %ecx,%r8d
  402d98:	44 89 40 04          	mov    %r8d,0x4(%rax)
  402d9c:	48 63 45 dc          	movslq -0x24(%rbp),%rax
  402da0:	48 89 45 f8          	mov    %rax,-0x8(%rbp)
  402da4:	48 8b 45 f8          	mov    -0x8(%rbp),%rax
  402da8:	48 83 c4 30          	add    $0x30,%rsp
  402dac:	5d                   	pop    %rbp
  402dad:	c3                   	retq   
  402dae:	66 90                	xchg   %ax,%ax

0000000000402db0 <check>:
  402db0:	55                   	push   %rbp
  402db1:	48 89 e5             	mov    %rsp,%rbp
  402db4:	89 7d f8             	mov    %edi,-0x8(%rbp)
  402db7:	8b 7d f8             	mov    -0x8(%rbp),%edi
  402dba:	c1 ef 1c             	shr    $0x1c,%edi
  402dbd:	83 e7 0f             	and    $0xf,%edi
  402dc0:	83 ff 00             	cmp    $0x0,%edi
  402dc3:	0f 85 0c 00 00 00    	jne    402dd5 <check+0x25>
  402dc9:	c7 45 fc 00 00 00 00 	movl   $0x0,-0x4(%rbp)
  402dd0:	e9 4d 00 00 00       	jmpq   402e22 <check+0x72>
  402dd5:	c7 45 f4 00 00 00 00 	movl   $0x0,-0xc(%rbp)
  402ddc:	83 7d f4 20          	cmpl   $0x20,-0xc(%rbp)
  402de0:	0f 8d 35 00 00 00    	jge    402e1b <check+0x6b>
  402de6:	8b 45 f8             	mov    -0x8(%rbp),%eax
  402de9:	8b 4d f4             	mov    -0xc(%rbp),%ecx
  402dec:	d3 e8                	shr    %cl,%eax
  402dee:	25 ff 00 00 00       	and    $0xff,%eax
  402df3:	83 f8 0a             	cmp    $0xa,%eax
  402df6:	0f 85 0c 00 00 00    	jne    402e08 <check+0x58>
  402dfc:	c7 45 fc 00 00 00 00 	movl   $0x0,-0x4(%rbp)
  402e03:	e9 1a 00 00 00       	jmpq   402e22 <check+0x72>
  402e08:	e9 00 00 00 00       	jmpq   402e0d <check+0x5d>
  402e0d:	8b 45 f4             	mov    -0xc(%rbp),%eax
  402e10:	83 c0 08             	add    $0x8,%eax
  402e13:	89 45 f4             	mov    %eax,-0xc(%rbp)
  402e16:	e9 c1 ff ff ff       	jmpq   402ddc <check+0x2c>
  402e1b:	c7 45 fc 01 00 00 00 	movl   $0x1,-0x4(%rbp)
  402e22:	8b 45 fc             	mov    -0x4(%rbp),%eax
  402e25:	5d                   	pop    %rbp
  402e26:	c3                   	retq   
  402e27:	66 0f 1f 84 00 00 00 	nopw   0x0(%rax,%rax,1)
  402e2e:	00 00 

0000000000402e30 <gencookie>:
  402e30:	55                   	push   %rbp
  402e31:	48 89 e5             	mov    %rsp,%rbp
  402e34:	48 83 ec 10          	sub    $0x10,%rsp
  402e38:	31 c0                	xor    %eax,%eax
  402e3a:	89 c1                	mov    %eax,%ecx
  402e3c:	48 89 7d f8          	mov    %rdi,-0x8(%rbp)
  402e40:	48 89 cf             	mov    %rcx,%rdi
  402e43:	e8 68 e3 ff ff       	callq  4011b0 <time@plt>
  402e48:	89 c2                	mov    %eax,%edx
  402e4a:	89 d7                	mov    %edx,%edi
  402e4c:	e8 ef e2 ff ff       	callq  401140 <srand@plt>
  402e51:	e8 2a e4 ff ff       	callq  401280 <rand@plt>
  402e56:	89 45 f4             	mov    %eax,-0xc(%rbp)
  402e59:	8b 7d f4             	mov    -0xc(%rbp),%edi
  402e5c:	e8 4f ff ff ff       	callq  402db0 <check>
  402e61:	83 f8 00             	cmp    $0x0,%eax
  402e64:	0f 95 c1             	setne  %cl
  402e67:	80 f1 ff             	xor    $0xff,%cl
  402e6a:	f6 c1 01             	test   $0x1,%cl
  402e6d:	0f 85 de ff ff ff    	jne    402e51 <gencookie+0x21>
  402e73:	8b 45 f4             	mov    -0xc(%rbp),%eax
  402e76:	48 83 c4 10          	add    $0x10,%rsp
  402e7a:	5d                   	pop    %rbp
  402e7b:	c3                   	retq   
  402e7c:	0f 1f 40 00          	nopl   0x0(%rax)

0000000000402e80 <__libc_csu_init>:
  402e80:	41 57                	push   %r15
  402e82:	49 89 d7             	mov    %rdx,%r15
  402e85:	41 56                	push   %r14
  402e87:	49 89 f6             	mov    %rsi,%r14
  402e8a:	41 55                	push   %r13
  402e8c:	41 89 fd             	mov    %edi,%r13d
  402e8f:	41 54                	push   %r12
  402e91:	4c 8d 25 68 1f 00 00 	lea    0x1f68(%rip),%r12        # 404e00 <__frame_dummy_init_array_entry>
  402e98:	55                   	push   %rbp
  402e99:	48 8d 2d 68 1f 00 00 	lea    0x1f68(%rip),%rbp        # 404e08 <__init_array_end>
  402ea0:	53                   	push   %rbx
  402ea1:	4c 29 e5             	sub    %r12,%rbp
  402ea4:	48 83 ec 08          	sub    $0x8,%rsp
  402ea8:	e8 53 e1 ff ff       	callq  401000 <_init>
  402ead:	48 c1 fd 03          	sar    $0x3,%rbp
  402eb1:	74 1b                	je     402ece <__libc_csu_init+0x4e>
  402eb3:	31 db                	xor    %ebx,%ebx
  402eb5:	0f 1f 00             	nopl   (%rax)
  402eb8:	4c 89 fa             	mov    %r15,%rdx
  402ebb:	4c 89 f6             	mov    %r14,%rsi
  402ebe:	44 89 ef             	mov    %r13d,%edi
  402ec1:	41 ff 14 dc          	callq  *(%r12,%rbx,8)
  402ec5:	48 83 c3 01          	add    $0x1,%rbx
  402ec9:	48 39 dd             	cmp    %rbx,%rbp
  402ecc:	75 ea                	jne    402eb8 <__libc_csu_init+0x38>
  402ece:	48 83 c4 08          	add    $0x8,%rsp
  402ed2:	5b                   	pop    %rbx
  402ed3:	5d                   	pop    %rbp
  402ed4:	41 5c                	pop    %r12
  402ed6:	41 5d                	pop    %r13
  402ed8:	41 5e                	pop    %r14
  402eda:	41 5f                	pop    %r15
  402edc:	c3                   	retq   
  402edd:	0f 1f 00             	nopl   (%rax)

0000000000402ee0 <__libc_csu_fini>:
  402ee0:	c3                   	retq   

Disassembly of section .fini:

0000000000402ee4 <_fini>:
  402ee4:	48 83 ec 08          	sub    $0x8,%rsp
  402ee8:	48 83 c4 08          	add    $0x8,%rsp
  402eec:	c3                   	retq   
